Component: ARM Compiler 5.06 update 7 (build 960) Tool: armlink [4d3601]

==============================================================================

Section Cross References

    startup_stm32f103xe.o(STACK) refers (Special) to heapauxi.o(.text) for __use_two_region_memory
    startup_stm32f103xe.o(HEAP) refers (Special) to heapauxi.o(.text) for __use_two_region_memory
    startup_stm32f103xe.o(RESET) refers (Special) to heapauxi.o(.text) for __use_two_region_memory
    startup_stm32f103xe.o(RESET) refers to startup_stm32f103xe.o(STACK) for __initial_sp
    startup_stm32f103xe.o(RESET) refers to startup_stm32f103xe.o(.text) for Reset_Handler
    startup_stm32f103xe.o(RESET) refers to usmart_port.o(i.TIM4_IRQHandler) for TIM4_IRQHandler
    startup_stm32f103xe.o(RESET) refers to usart.o(i.USART1_IRQHandler) for USART1_IRQHandler
    startup_stm32f103xe.o(.text) refers (Special) to heapauxi.o(.text) for __use_two_region_memory
    startup_stm32f103xe.o(.text) refers to __main.o(!!!main) for __main
    startup_stm32f103xe.o(.text) refers to startup_stm32f103xe.o(HEAP) for Heap_Mem
    startup_stm32f103xe.o(.text) refers to startup_stm32f103xe.o(STACK) for Stack_Mem
    main.o(i.main) refers to sys.o(i.sys_stm32_clock_init) for sys_stm32_clock_init
    main.o(i.main) refers to delay.o(i.delay_init) for delay_init
    main.o(i.main) refers to usart.o(i.usart_init) for usart_init
    main.o(i.main) refers to led.o(i.led_init) for led_init
    main.o(i.main) refers to lcd.o(i.lcd_init) for lcd_init
    main.o(i.main) refers to key.o(i.key_init) for key_init
    main.o(i.main) refers to sram.o(i.sram_init) for sram_init
    main.o(i.main) refers to norflash.o(i.norflash_init) for norflash_init
    main.o(i.main) refers to malloc.o(i.my_mem_init) for my_mem_init
    main.o(i.main) refers to lcd.o(i.lcd_show_string) for lcd_show_string
    main.o(i.main) refers to delay.o(i.delay_ms) for delay_ms
    main.o(i.main) refers to sdio_sdcard.o(i.sd_init) for sd_init
    main.o(i.main) refers to exfuns.o(i.exfuns_init) for exfuns_init
    main.o(i.main) refers to ff.o(i.f_mount) for f_mount
    main.o(i.main) refers to ff.o(i.f_mkfs) for f_mkfs
    main.o(i.main) refers to ff.o(i.f_setlabel) for f_setlabel
    main.o(i.main) refers to lcd.o(i.lcd_fill) for lcd_fill
    main.o(i.main) refers to exfuns.o(i.exfuns_get_free) for exfuns_get_free
    main.o(i.main) refers to lcd.o(i.lcd_show_num) for lcd_show_num
    main.o(i.main) refers to usmart_config.o(.data) for usmart_dev
    main.o(i.main) refers to exfuns.o(.data) for fs
    delay.o(i.delay_init) refers to delay.o(.data) for g_fac_us
    delay.o(i.delay_ms) refers to delay.o(i.delay_us) for delay_us
    delay.o(i.delay_us) refers to delay.o(.data) for g_fac_us
    sys.o(i.sys_nvic_init) refers to sys.o(i.sys_nvic_priority_group_config) for sys_nvic_priority_group_config
    sys.o(i.sys_standby) refers to sys.o(i.sys_wfi_set) for sys_wfi_set
    sys.o(i.sys_stm32_clock_init) refers to sys.o(i.sys_clock_set) for sys_clock_set
    sys.o(i.sys_stm32_clock_init) refers to sys.o(i.sys_nvic_set_vector_table) for sys_nvic_set_vector_table
    usart.o(.rev16_text) refers (Special) to use_no_semi_2.o(.text) for __use_no_semihosting
    usart.o(.revsh_text) refers (Special) to use_no_semi_2.o(.text) for __use_no_semihosting
    usart.o(.rrx_text) refers (Special) to use_no_semi_2.o(.text) for __use_no_semihosting
    usart.o(i.USART1_IRQHandler) refers (Special) to use_no_semi_2.o(.text) for __use_no_semihosting
    usart.o(i.USART1_IRQHandler) refers to usart.o(.data) for g_usart_rx_sta
    usart.o(i.USART1_IRQHandler) refers to usart.o(.bss) for g_usart_rx_buf
    usart.o(i._sys_command_string) refers (Special) to use_no_semi_2.o(.text) for __use_no_semihosting
    usart.o(i._sys_exit) refers (Special) to use_no_semi_2.o(.text) for __use_no_semihosting
    usart.o(i._ttywrch) refers (Special) to use_no_semi_2.o(.text) for __use_no_semihosting
    usart.o(i.fputc) refers (Special) to use_no_semi_2.o(.text) for __use_no_semihosting
    usart.o(i.usart_init) refers (Special) to use_no_semi_2.o(.text) for __use_no_semihosting
    usart.o(i.usart_init) refers to sys.o(i.sys_gpio_set) for sys_gpio_set
    usart.o(i.usart_init) refers to sys.o(i.sys_nvic_init) for sys_nvic_init
    usart.o(.bss) refers (Special) to use_no_semi_2.o(.text) for __use_no_semihosting
    usart.o(.data) refers (Special) to use_no_semi_2.o(.text) for __use_no_semihosting
    led.o(i.led_init) refers to sys.o(i.sys_gpio_set) for sys_gpio_set
    led.o(i.led_init) refers to sys.o(i.sys_gpio_pin_set) for sys_gpio_pin_set
    lcd.o(i.lcd_clear) refers to lcd.o(i.lcd_set_cursor) for lcd_set_cursor
    lcd.o(i.lcd_clear) refers to lcd.o(i.lcd_write_ram_prepare) for lcd_write_ram_prepare
    lcd.o(i.lcd_clear) refers to lcd.o(.bss) for lcddev
    lcd.o(i.lcd_color_fill) refers to lcd.o(i.lcd_set_cursor) for lcd_set_cursor
    lcd.o(i.lcd_color_fill) refers to lcd.o(i.lcd_write_ram_prepare) for lcd_write_ram_prepare
    lcd.o(i.lcd_display_dir) refers to lcd.o(i.lcd_scan_dir) for lcd_scan_dir
    lcd.o(i.lcd_display_dir) refers to lcd.o(.bss) for lcddev
    lcd.o(i.lcd_display_off) refers to lcd.o(i.lcd_wr_regno) for lcd_wr_regno
    lcd.o(i.lcd_display_off) refers to lcd.o(.bss) for lcddev
    lcd.o(i.lcd_display_on) refers to lcd.o(i.lcd_wr_regno) for lcd_wr_regno
    lcd.o(i.lcd_display_on) refers to lcd.o(.bss) for lcddev
    lcd.o(i.lcd_draw_circle) refers to lcd.o(i.lcd_draw_point) for lcd_draw_point
    lcd.o(i.lcd_draw_hline) refers to lcd.o(i.lcd_fill) for lcd_fill
    lcd.o(i.lcd_draw_hline) refers to lcd.o(.bss) for lcddev
    lcd.o(i.lcd_draw_line) refers to lcd.o(i.lcd_draw_point) for lcd_draw_point
    lcd.o(i.lcd_draw_point) refers to lcd.o(i.lcd_set_cursor) for lcd_set_cursor
    lcd.o(i.lcd_draw_point) refers to lcd.o(i.lcd_write_ram_prepare) for lcd_write_ram_prepare
    lcd.o(i.lcd_draw_rectangle) refers to lcd.o(i.lcd_draw_line) for lcd_draw_line
    lcd.o(i.lcd_ex_ili9341_reginit) refers to lcd.o(i.lcd_wr_regno) for lcd_wr_regno
    lcd.o(i.lcd_ex_ili9341_reginit) refers to lcd.o(i.lcd_wr_data) for lcd_wr_data
    lcd.o(i.lcd_ex_ili9341_reginit) refers to delay.o(i.delay_ms) for delay_ms
    lcd.o(i.lcd_ex_ili9806_reginit) refers to lcd.o(i.lcd_wr_regno) for lcd_wr_regno
    lcd.o(i.lcd_ex_ili9806_reginit) refers to lcd.o(i.lcd_wr_data) for lcd_wr_data
    lcd.o(i.lcd_ex_ili9806_reginit) refers to delay.o(i.delay_ms) for delay_ms
    lcd.o(i.lcd_ex_nt35310_reginit) refers to lcd.o(i.lcd_wr_regno) for lcd_wr_regno
    lcd.o(i.lcd_ex_nt35310_reginit) refers to lcd.o(i.lcd_wr_data) for lcd_wr_data
    lcd.o(i.lcd_ex_nt35310_reginit) refers to delay.o(i.delay_ms) for delay_ms
    lcd.o(i.lcd_ex_nt35510_reginit) refers to lcd.o(i.lcd_write_reg) for lcd_write_reg
    lcd.o(i.lcd_ex_nt35510_reginit) refers to lcd.o(i.lcd_wr_regno) for lcd_wr_regno
    lcd.o(i.lcd_ex_nt35510_reginit) refers to delay.o(i.delay_ms) for delay_ms
    lcd.o(i.lcd_ex_ssd1963_reginit) refers to lcd.o(i.lcd_wr_regno) for lcd_wr_regno
    lcd.o(i.lcd_ex_ssd1963_reginit) refers to lcd.o(i.lcd_wr_data) for lcd_wr_data
    lcd.o(i.lcd_ex_ssd1963_reginit) refers to delay.o(i.delay_us) for delay_us
    lcd.o(i.lcd_ex_ssd1963_reginit) refers to delay.o(i.delay_ms) for delay_ms
    lcd.o(i.lcd_ex_st7789_reginit) refers to lcd.o(i.lcd_wr_regno) for lcd_wr_regno
    lcd.o(i.lcd_ex_st7789_reginit) refers to delay.o(i.delay_ms) for delay_ms
    lcd.o(i.lcd_ex_st7789_reginit) refers to lcd.o(i.lcd_wr_data) for lcd_wr_data
    lcd.o(i.lcd_ex_st7796_reginit) refers to lcd.o(i.lcd_wr_regno) for lcd_wr_regno
    lcd.o(i.lcd_ex_st7796_reginit) refers to delay.o(i.delay_ms) for delay_ms
    lcd.o(i.lcd_ex_st7796_reginit) refers to lcd.o(i.lcd_wr_data) for lcd_wr_data
    lcd.o(i.lcd_fill) refers to lcd.o(i.lcd_set_cursor) for lcd_set_cursor
    lcd.o(i.lcd_fill) refers to lcd.o(i.lcd_write_ram_prepare) for lcd_write_ram_prepare
    lcd.o(i.lcd_fill_circle) refers to lcd.o(i.lcd_draw_hline) for lcd_draw_hline
    lcd.o(i.lcd_init) refers to _printf_percent.o(.ARM.Collect$$_printf_percent$$00000000) for _printf_percent
    lcd.o(i.lcd_init) refers to _printf_x.o(.ARM.Collect$$_printf_percent$$0000000C) for _printf_x
    lcd.o(i.lcd_init) refers to _printf_hex_int.o(.text) for _printf_longlong_hex
    lcd.o(i.lcd_init) refers to sys.o(i.sys_gpio_set) for sys_gpio_set
    lcd.o(i.lcd_init) refers to lcd.o(i.lcd_opt_delay) for lcd_opt_delay
    lcd.o(i.lcd_init) refers to lcd.o(i.lcd_wr_regno) for lcd_wr_regno
    lcd.o(i.lcd_init) refers to lcd.o(i.lcd_rd_data) for lcd_rd_data
    lcd.o(i.lcd_init) refers to lcd.o(i.lcd_write_reg) for lcd_write_reg
    lcd.o(i.lcd_init) refers to delay.o(i.delay_ms) for delay_ms
    lcd.o(i.lcd_init) refers to noretval__2printf.o(.text) for __2printf
    lcd.o(i.lcd_init) refers to lcd.o(i.lcd_ex_st7789_reginit) for lcd_ex_st7789_reginit
    lcd.o(i.lcd_init) refers to lcd.o(i.lcd_ex_ili9341_reginit) for lcd_ex_ili9341_reginit
    lcd.o(i.lcd_init) refers to lcd.o(i.lcd_ex_nt35310_reginit) for lcd_ex_nt35310_reginit
    lcd.o(i.lcd_init) refers to lcd.o(.bss) for lcddev
    lcd.o(i.lcd_init) refers to lcd.o(i.lcd_ex_st7796_reginit) for lcd_ex_st7796_reginit
    lcd.o(i.lcd_init) refers to lcd.o(i.lcd_ex_nt35510_reginit) for lcd_ex_nt35510_reginit
    lcd.o(i.lcd_init) refers to lcd.o(i.lcd_ex_ili9806_reginit) for lcd_ex_ili9806_reginit
    lcd.o(i.lcd_init) refers to lcd.o(i.lcd_ex_ssd1963_reginit) for lcd_ex_ssd1963_reginit
    lcd.o(i.lcd_init) refers to lcd.o(i.lcd_ssd_backlight_set) for lcd_ssd_backlight_set
    lcd.o(i.lcd_init) refers to lcd.o(i.lcd_display_dir) for lcd_display_dir
    lcd.o(i.lcd_init) refers to sys.o(i.sys_gpio_pin_set) for sys_gpio_pin_set
    lcd.o(i.lcd_init) refers to lcd.o(i.lcd_clear) for lcd_clear
    lcd.o(i.lcd_rd_data) refers to lcd.o(i.lcd_opt_delay) for lcd_opt_delay
    lcd.o(i.lcd_read_point) refers to lcd.o(i.lcd_set_cursor) for lcd_set_cursor
    lcd.o(i.lcd_read_point) refers to lcd.o(i.lcd_wr_regno) for lcd_wr_regno
    lcd.o(i.lcd_read_point) refers to lcd.o(i.lcd_rd_data) for lcd_rd_data
    lcd.o(i.lcd_read_point) refers to lcd.o(.bss) for lcddev
    lcd.o(i.lcd_scan_dir) refers to lcd.o(i.lcd_write_reg) for lcd_write_reg
    lcd.o(i.lcd_scan_dir) refers to lcd.o(i.lcd_wr_regno) for lcd_wr_regno
    lcd.o(i.lcd_scan_dir) refers to lcd.o(i.lcd_wr_data) for lcd_wr_data
    lcd.o(i.lcd_scan_dir) refers to lcd.o(.bss) for lcddev
    lcd.o(i.lcd_set_cursor) refers to lcd.o(i.lcd_wr_regno) for lcd_wr_regno
    lcd.o(i.lcd_set_cursor) refers to lcd.o(i.lcd_wr_data) for lcd_wr_data
    lcd.o(i.lcd_set_cursor) refers to lcd.o(.bss) for lcddev
    lcd.o(i.lcd_set_window) refers to lcd.o(i.lcd_wr_regno) for lcd_wr_regno
    lcd.o(i.lcd_set_window) refers to lcd.o(i.lcd_wr_data) for lcd_wr_data
    lcd.o(i.lcd_set_window) refers to lcd.o(.bss) for lcddev
    lcd.o(i.lcd_show_char) refers to lcd.o(i.lcd_draw_point) for lcd_draw_point
    lcd.o(i.lcd_show_char) refers to lcd.o(.constdata) for asc2_1206
    lcd.o(i.lcd_show_char) refers to lcd.o(.data) for g_back_color
    lcd.o(i.lcd_show_char) refers to lcd.o(.bss) for lcddev
    lcd.o(i.lcd_show_num) refers to lcd.o(i.lcd_pow) for lcd_pow
    lcd.o(i.lcd_show_num) refers to lcd.o(i.lcd_show_char) for lcd_show_char
    lcd.o(i.lcd_show_string) refers to lcd.o(i.lcd_show_char) for lcd_show_char
    lcd.o(i.lcd_show_xnum) refers to lcd.o(i.lcd_pow) for lcd_pow
    lcd.o(i.lcd_show_xnum) refers to lcd.o(i.lcd_show_char) for lcd_show_char
    lcd.o(i.lcd_ssd_backlight_set) refers to lcd.o(i.lcd_wr_regno) for lcd_wr_regno
    lcd.o(i.lcd_ssd_backlight_set) refers to lcd.o(i.lcd_wr_data) for lcd_wr_data
    lcd.o(i.lcd_ssd_backlight_set) refers to dflt_clz.o(x$fpl$dfltu) for __aeabi_ui2d
    lcd.o(i.lcd_ssd_backlight_set) refers to dmul.o(x$fpl$dmul) for __aeabi_dmul
    lcd.o(i.lcd_ssd_backlight_set) refers to dfixu.o(x$fpl$dfixu) for __aeabi_d2uiz
    lcd.o(i.lcd_write_ram_prepare) refers to lcd.o(.bss) for lcddev
    key.o(i.key_init) refers to sys.o(i.sys_gpio_set) for sys_gpio_set
    key.o(i.key_scan) refers to sys.o(i.sys_gpio_pin_get) for sys_gpio_pin_get
    key.o(i.key_scan) refers to delay.o(i.delay_ms) for delay_ms
    key.o(i.key_scan) refers to key.o(.data) for key_up
    sram.o(i.sram_init) refers to sys.o(i.sys_gpio_set) for sys_gpio_set
    sram.o(i.sram_test_read) refers to sram.o(i.sram_read) for sram_read
    sram.o(i.sram_test_write) refers to sram.o(i.sram_write) for sram_write
    sdio_sdcard.o(i.sd_init) refers to sys.o(i.sys_gpio_set) for sys_gpio_set
    sdio_sdcard.o(i.sd_init) refers to sdio_sdcard.o(i.sdmmc_power_on) for sdmmc_power_on
    sdio_sdcard.o(i.sd_init) refers to sdio_sdcard.o(i.sdmmc_initialize_cards) for sdmmc_initialize_cards
    sdio_sdcard.o(i.sd_init) refers to sdio_sdcard.o(i.sdmmc_get_card_info) for sdmmc_get_card_info
    sdio_sdcard.o(i.sd_init) refers to sdio_sdcard.o(i.sdmmc_select_deselect) for sdmmc_select_deselect
    sdio_sdcard.o(i.sd_init) refers to sdio_sdcard.o(i.sdmmc_wide_bus_operation) for sdmmc_wide_bus_operation
    sdio_sdcard.o(i.sd_init) refers to sdio_sdcard.o(i.sdmmc_clock_set) for sdmmc_clock_set
    sdio_sdcard.o(i.sd_init) refers to sdio_sdcard.o(.bss) for g_sd_card_info
    sdio_sdcard.o(i.sd_init) refers to sdio_sdcard.o(.data) for CardType
    sdio_sdcard.o(i.sd_read_disk) refers to sdio_sdcard.o(i.sdmmc_read_blocks) for sdmmc_read_blocks
    sdio_sdcard.o(i.sd_read_disk) refers to rt_memcpy_v6.o(.text) for __aeabi_memcpy
    sdio_sdcard.o(i.sd_read_disk) refers to sdio_sdcard.o(.data) for CardType
    sdio_sdcard.o(i.sd_read_disk) refers to sdio_sdcard.o(.bss) for g_sd_data_buffer
    sdio_sdcard.o(i.sd_write_disk) refers to rt_memcpy_v6.o(.text) for __aeabi_memcpy
    sdio_sdcard.o(i.sd_write_disk) refers to sdio_sdcard.o(i.sdmmc_write_blocks) for sdmmc_write_blocks
    sdio_sdcard.o(i.sd_write_disk) refers to sdio_sdcard.o(.data) for CardType
    sdio_sdcard.o(i.sd_write_disk) refers to sdio_sdcard.o(.bss) for g_sd_data_buffer
    sdio_sdcard.o(i.sdmmc_find_scr) refers to sdio_sdcard.o(i.sdmmc_send_cmd) for sdmmc_send_cmd
    sdio_sdcard.o(i.sdmmc_find_scr) refers to sdio_sdcard.o(i.sdmmc_cmd_resp1_error) for sdmmc_cmd_resp1_error
    sdio_sdcard.o(i.sdmmc_find_scr) refers to sdio_sdcard.o(i.sdmmc_send_data_cfg) for sdmmc_send_data_cfg
    sdio_sdcard.o(i.sdmmc_get_card_info) refers to sdio_sdcard.o(.data) for CardType
    sdio_sdcard.o(i.sdmmc_get_card_info) refers to sdio_sdcard.o(.bss) for CSD_Tab
    sdio_sdcard.o(i.sdmmc_get_status) refers to sdio_sdcard.o(i.sdmmc_send_status) for sdmmc_send_status
    sdio_sdcard.o(i.sdmmc_initialize_cards) refers to sdio_sdcard.o(i.sdmmc_send_cmd) for sdmmc_send_cmd
    sdio_sdcard.o(i.sdmmc_initialize_cards) refers to sdio_sdcard.o(i.sdmmc_cmd_resp2_error) for sdmmc_cmd_resp2_error
    sdio_sdcard.o(i.sdmmc_initialize_cards) refers to sdio_sdcard.o(i.sdmmc_cmd_resp6_error) for sdmmc_cmd_resp6_error
    sdio_sdcard.o(i.sdmmc_initialize_cards) refers to sdio_sdcard.o(.data) for CardType
    sdio_sdcard.o(i.sdmmc_initialize_cards) refers to sdio_sdcard.o(.bss) for CID_Tab
    sdio_sdcard.o(i.sdmmc_is_card_programming) refers to sdio_sdcard.o(i.sdmmc_send_cmd) for sdmmc_send_cmd
    sdio_sdcard.o(i.sdmmc_is_card_programming) refers to sdio_sdcard.o(.data) for RCA
    sdio_sdcard.o(i.sdmmc_power_on) refers to sdio_sdcard.o(i.sdmmc_clock_set) for sdmmc_clock_set
    sdio_sdcard.o(i.sdmmc_power_on) refers to sdio_sdcard.o(i.sdmmc_send_cmd) for sdmmc_send_cmd
    sdio_sdcard.o(i.sdmmc_power_on) refers to sdio_sdcard.o(i.sdmmc_cmd_error) for sdmmc_cmd_error
    sdio_sdcard.o(i.sdmmc_power_on) refers to sdio_sdcard.o(i.sdmmc_cmd_resp7_error) for sdmmc_cmd_resp7_error
    sdio_sdcard.o(i.sdmmc_power_on) refers to sdio_sdcard.o(i.sdmmc_cmd_resp1_error) for sdmmc_cmd_resp1_error
    sdio_sdcard.o(i.sdmmc_power_on) refers to sdio_sdcard.o(i.sdmmc_cmd_resp3_error) for sdmmc_cmd_resp3_error
    sdio_sdcard.o(i.sdmmc_power_on) refers to sdio_sdcard.o(.data) for CardType
    sdio_sdcard.o(i.sdmmc_read_blocks) refers to sdio_sdcard.o(i.sdmmc_send_cmd) for sdmmc_send_cmd
    sdio_sdcard.o(i.sdmmc_read_blocks) refers to sdio_sdcard.o(i.sdmmc_cmd_resp1_error) for sdmmc_cmd_resp1_error
    sdio_sdcard.o(i.sdmmc_read_blocks) refers to sdio_sdcard.o(i.sdmmc_send_data_cfg) for sdmmc_send_data_cfg
    sdio_sdcard.o(i.sdmmc_read_blocks) refers to noretval__2printf.o(.text) for __2printf
    sdio_sdcard.o(i.sdmmc_read_blocks) refers to sys.o(i.sys_intx_disable) for sys_intx_disable
    sdio_sdcard.o(i.sdmmc_read_blocks) refers to sys.o(i.sys_intx_enable) for sys_intx_enable
    sdio_sdcard.o(i.sdmmc_read_blocks) refers to sdio_sdcard.o(.data) for CardType
    sdio_sdcard.o(i.sdmmc_select_deselect) refers to sdio_sdcard.o(i.sdmmc_send_cmd) for sdmmc_send_cmd
    sdio_sdcard.o(i.sdmmc_select_deselect) refers to sdio_sdcard.o(i.sdmmc_cmd_resp1_error) for sdmmc_cmd_resp1_error
    sdio_sdcard.o(i.sdmmc_send_status) refers to sdio_sdcard.o(i.sdmmc_send_cmd) for sdmmc_send_cmd
    sdio_sdcard.o(i.sdmmc_send_status) refers to sdio_sdcard.o(i.sdmmc_cmd_resp1_error) for sdmmc_cmd_resp1_error
    sdio_sdcard.o(i.sdmmc_send_status) refers to sdio_sdcard.o(.data) for RCA
    sdio_sdcard.o(i.sdmmc_wide_bus_enable) refers to sdio_sdcard.o(i.sdmmc_find_scr) for sdmmc_find_scr
    sdio_sdcard.o(i.sdmmc_wide_bus_enable) refers to sdio_sdcard.o(i.sdmmc_send_cmd) for sdmmc_send_cmd
    sdio_sdcard.o(i.sdmmc_wide_bus_enable) refers to sdio_sdcard.o(i.sdmmc_cmd_resp1_error) for sdmmc_cmd_resp1_error
    sdio_sdcard.o(i.sdmmc_wide_bus_enable) refers to sdio_sdcard.o(.data) for RCA
    sdio_sdcard.o(i.sdmmc_wide_bus_operation) refers to sdio_sdcard.o(i.sdmmc_wide_bus_enable) for sdmmc_wide_bus_enable
    sdio_sdcard.o(i.sdmmc_wide_bus_operation) refers to sdio_sdcard.o(.data) for CardType
    sdio_sdcard.o(i.sdmmc_write_blocks) refers to sdio_sdcard.o(i.sdmmc_send_cmd) for sdmmc_send_cmd
    sdio_sdcard.o(i.sdmmc_write_blocks) refers to sdio_sdcard.o(i.sdmmc_cmd_resp1_error) for sdmmc_cmd_resp1_error
    sdio_sdcard.o(i.sdmmc_write_blocks) refers to sdio_sdcard.o(i.sdmmc_send_data_cfg) for sdmmc_send_data_cfg
    sdio_sdcard.o(i.sdmmc_write_blocks) refers to sys.o(i.sys_intx_disable) for sys_intx_disable
    sdio_sdcard.o(i.sdmmc_write_blocks) refers to sys.o(i.sys_intx_enable) for sys_intx_enable
    sdio_sdcard.o(i.sdmmc_write_blocks) refers to sdio_sdcard.o(i.sdmmc_is_card_programming) for sdmmc_is_card_programming
    sdio_sdcard.o(i.sdmmc_write_blocks) refers to sdio_sdcard.o(.data) for CardType
    spi.o(i.spi2_init) refers to sys.o(i.sys_gpio_set) for sys_gpio_set
    spi.o(i.spi2_init) refers to spi.o(i.spi2_read_write_byte) for spi2_read_write_byte
    norflash.o(i.norflash_erase_chip) refers to norflash.o(i.norflash_write_enable) for norflash_write_enable
    norflash.o(i.norflash_erase_chip) refers to norflash.o(i.norflash_wait_busy) for norflash_wait_busy
    norflash.o(i.norflash_erase_chip) refers to sys.o(i.sys_gpio_pin_set) for sys_gpio_pin_set
    norflash.o(i.norflash_erase_chip) refers to spi.o(i.spi2_read_write_byte) for spi2_read_write_byte
    norflash.o(i.norflash_erase_sector) refers to norflash.o(i.norflash_write_enable) for norflash_write_enable
    norflash.o(i.norflash_erase_sector) refers to norflash.o(i.norflash_wait_busy) for norflash_wait_busy
    norflash.o(i.norflash_erase_sector) refers to sys.o(i.sys_gpio_pin_set) for sys_gpio_pin_set
    norflash.o(i.norflash_erase_sector) refers to spi.o(i.spi2_read_write_byte) for spi2_read_write_byte
    norflash.o(i.norflash_erase_sector) refers to norflash.o(i.norflash_send_address) for norflash_send_address
    norflash.o(i.norflash_init) refers to sys.o(i.sys_gpio_set) for sys_gpio_set
    norflash.o(i.norflash_init) refers to sys.o(i.sys_gpio_pin_set) for sys_gpio_pin_set
    norflash.o(i.norflash_init) refers to spi.o(i.spi2_init) for spi2_init
    norflash.o(i.norflash_init) refers to spi.o(i.spi2_set_speed) for spi2_set_speed
    norflash.o(i.norflash_init) refers to norflash.o(i.norflash_read_id) for norflash_read_id
    norflash.o(i.norflash_init) refers to norflash.o(i.norflash_read_sr) for norflash_read_sr
    norflash.o(i.norflash_init) refers to norflash.o(i.norflash_write_enable) for norflash_write_enable
    norflash.o(i.norflash_init) refers to norflash.o(i.norflash_write_sr) for norflash_write_sr
    norflash.o(i.norflash_init) refers to spi.o(i.spi2_read_write_byte) for spi2_read_write_byte
    norflash.o(i.norflash_init) refers to norflash.o(.data) for g_norflash_type
    norflash.o(i.norflash_read) refers to sys.o(i.sys_gpio_pin_set) for sys_gpio_pin_set
    norflash.o(i.norflash_read) refers to spi.o(i.spi2_read_write_byte) for spi2_read_write_byte
    norflash.o(i.norflash_read) refers to norflash.o(i.norflash_send_address) for norflash_send_address
    norflash.o(i.norflash_read_id) refers to sys.o(i.sys_gpio_pin_set) for sys_gpio_pin_set
    norflash.o(i.norflash_read_id) refers to spi.o(i.spi2_read_write_byte) for spi2_read_write_byte
    norflash.o(i.norflash_read_sr) refers to sys.o(i.sys_gpio_pin_set) for sys_gpio_pin_set
    norflash.o(i.norflash_read_sr) refers to spi.o(i.spi2_read_write_byte) for spi2_read_write_byte
    norflash.o(i.norflash_send_address) refers to spi.o(i.spi2_read_write_byte) for spi2_read_write_byte
    norflash.o(i.norflash_send_address) refers to norflash.o(.data) for g_norflash_type
    norflash.o(i.norflash_wait_busy) refers to norflash.o(i.norflash_read_sr) for norflash_read_sr
    norflash.o(i.norflash_write) refers to norflash.o(i.norflash_read) for norflash_read
    norflash.o(i.norflash_write) refers to norflash.o(i.norflash_erase_sector) for norflash_erase_sector
    norflash.o(i.norflash_write) refers to norflash.o(i.norflash_write_nocheck) for norflash_write_nocheck
    norflash.o(i.norflash_write) refers to norflash.o(.bss) for g_norflash_buf
    norflash.o(i.norflash_write_enable) refers to sys.o(i.sys_gpio_pin_set) for sys_gpio_pin_set
    norflash.o(i.norflash_write_enable) refers to spi.o(i.spi2_read_write_byte) for spi2_read_write_byte
    norflash.o(i.norflash_write_nocheck) refers to norflash.o(i.norflash_write_page) for norflash_write_page
    norflash.o(i.norflash_write_page) refers to norflash.o(i.norflash_write_enable) for norflash_write_enable
    norflash.o(i.norflash_write_page) refers to sys.o(i.sys_gpio_pin_set) for sys_gpio_pin_set
    norflash.o(i.norflash_write_page) refers to spi.o(i.spi2_read_write_byte) for spi2_read_write_byte
    norflash.o(i.norflash_write_page) refers to norflash.o(i.norflash_send_address) for norflash_send_address
    norflash.o(i.norflash_write_page) refers to norflash.o(i.norflash_wait_busy) for norflash_wait_busy
    norflash.o(i.norflash_write_sr) refers to sys.o(i.sys_gpio_pin_set) for sys_gpio_pin_set
    norflash.o(i.norflash_write_sr) refers to spi.o(i.spi2_read_write_byte) for spi2_read_write_byte
    malloc.o(i.my_mem_free) refers to malloc.o(.data) for mallco_dev
    malloc.o(i.my_mem_free) refers to malloc.o(.constdata) for memsize
    malloc.o(i.my_mem_init) refers to malloc.o(i.my_mem_set) for my_mem_set
    malloc.o(i.my_mem_init) refers to malloc.o(.constdata) for memtblsize
    malloc.o(i.my_mem_init) refers to malloc.o(.data) for mallco_dev
    malloc.o(i.my_mem_malloc) refers to malloc.o(.data) for mallco_dev
    malloc.o(i.my_mem_malloc) refers to malloc.o(.constdata) for memblksize
    malloc.o(i.my_mem_perused) refers to malloc.o(.data) for mallco_dev
    malloc.o(i.my_mem_perused) refers to malloc.o(.constdata) for memtblsize
    malloc.o(i.myfree) refers to malloc.o(i.my_mem_free) for my_mem_free
    malloc.o(i.myfree) refers to malloc.o(.data) for mallco_dev
    malloc.o(i.mymalloc) refers to malloc.o(i.my_mem_malloc) for my_mem_malloc
    malloc.o(i.mymalloc) refers to malloc.o(.data) for mallco_dev
    malloc.o(i.myrealloc) refers to malloc.o(i.my_mem_malloc) for my_mem_malloc
    malloc.o(i.myrealloc) refers to malloc.o(i.my_mem_copy) for my_mem_copy
    malloc.o(i.myrealloc) refers to malloc.o(i.myfree) for myfree
    malloc.o(i.myrealloc) refers to malloc.o(.data) for mallco_dev
    malloc.o(.data) refers to malloc.o(i.my_mem_init) for my_mem_init
    malloc.o(.data) refers to malloc.o(i.my_mem_perused) for my_mem_perused
    malloc.o(.data) refers to malloc.o(.bss) for mem1base
    malloc.o(.data) refers to malloc.o(.ARM.__AT_0x68000000) for mem2base
    malloc.o(.data) refers to malloc.o(.ARM.__AT_0x680F0C00) for mem2mapbase
    diskio.o(i.disk_initialize) refers to sdio_sdcard.o(i.sd_init) for sd_init
    diskio.o(i.disk_initialize) refers to norflash.o(i.norflash_init) for norflash_init
    diskio.o(i.disk_ioctl) refers to llsdiv.o(.text) for __aeabi_ldivmod
    diskio.o(i.disk_ioctl) refers to sdio_sdcard.o(.bss) for g_sd_card_info
    diskio.o(i.disk_read) refers to sdio_sdcard.o(i.sd_read_disk) for sd_read_disk
    diskio.o(i.disk_read) refers to sdio_sdcard.o(i.sd_init) for sd_init
    diskio.o(i.disk_read) refers to norflash.o(i.norflash_read) for norflash_read
    diskio.o(i.disk_write) refers to sdio_sdcard.o(i.sd_write_disk) for sd_write_disk
    diskio.o(i.disk_write) refers to sdio_sdcard.o(i.sd_init) for sd_init
    diskio.o(i.disk_write) refers to norflash.o(i.norflash_write) for norflash_write
    ff.o(i.change_bitmap) refers to ff.o(i.move_window) for move_window
    ff.o(i.check_fs) refers to ff.o(i.move_window) for move_window
    ff.o(i.check_fs) refers to ff.o(i.ld_word) for ld_word
    ff.o(i.check_fs) refers to memcmp.o(.text) for memcmp
    ff.o(i.check_fs) refers to ff.o(i.ld_dword) for ld_dword
    ff.o(i.clmt_clust) refers to lludivv7m.o(.text) for __aeabi_uldivmod
    ff.o(i.cmp_lfn) refers to ff.o(i.ld_word) for ld_word
    ff.o(i.cmp_lfn) refers to ffunicode.o(i.ff_wtoupper) for ff_wtoupper
    ff.o(i.cmp_lfn) refers to ff.o(.constdata) for LfnOfs
    ff.o(i.create_chain) refers to ff.o(i.get_fat) for get_fat
    ff.o(i.create_chain) refers to ff.o(i.find_bitmap) for find_bitmap
    ff.o(i.create_chain) refers to ff.o(i.change_bitmap) for change_bitmap
    ff.o(i.create_chain) refers to ff.o(i.fill_last_frag) for fill_last_frag
    ff.o(i.create_chain) refers to ff.o(i.put_fat) for put_fat
    ff.o(i.create_name) refers to ff.o(i.tchar2uni) for tchar2uni
    ff.o(i.create_name) refers to strchr.o(.text) for strchr
    ff.o(i.create_name) refers to aeabi_memset.o(.text) for __aeabi_memset
    ff.o(i.create_name) refers to ffunicode.o(i.ff_wtoupper) for ff_wtoupper
    ff.o(i.create_name) refers to ffunicode.o(i.ff_uni2oem) for ff_uni2oem
    ff.o(i.create_partition) refers to diskio.o(i.disk_ioctl) for disk_ioctl
    ff.o(i.create_partition) refers to rt_memclr.o(.text) for __aeabi_memclr
    ff.o(i.create_partition) refers to ff.o(i.st_dword) for st_dword
    ff.o(i.create_partition) refers to ff.o(i.st_word) for st_word
    ff.o(i.create_partition) refers to diskio.o(i.disk_write) for disk_write
    ff.o(i.create_xdir) refers to rt_memclr.o(.text) for __aeabi_memclr
    ff.o(i.create_xdir) refers to ff.o(i.st_word) for st_word
    ff.o(i.create_xdir) refers to ff.o(i.xname_sum) for xname_sum
    ff.o(i.dbc_1st) refers to ff.o(.constdata) for DbcTbl
    ff.o(i.dbc_2nd) refers to ff.o(.constdata) for DbcTbl
    ff.o(i.dir_alloc) refers to ff.o(i.dir_sdi) for dir_sdi
    ff.o(i.dir_alloc) refers to ff.o(i.move_window) for move_window
    ff.o(i.dir_alloc) refers to ff.o(i.dir_next) for dir_next
    ff.o(i.dir_clear) refers to ff.o(i.sync_window) for sync_window
    ff.o(i.dir_clear) refers to ff.o(i.clst2sect) for clst2sect
    ff.o(i.dir_clear) refers to rt_memclr_w.o(.text) for __aeabi_memclr4
    ff.o(i.dir_clear) refers to ffsystem.o(i.ff_memalloc) for ff_memalloc
    ff.o(i.dir_clear) refers to rt_memclr.o(.text) for __aeabi_memclr
    ff.o(i.dir_clear) refers to diskio.o(i.disk_write) for disk_write
    ff.o(i.dir_clear) refers to ffsystem.o(i.ff_memfree) for ff_memfree
    ff.o(i.dir_find) refers to ff.o(i.dir_sdi) for dir_sdi
    ff.o(i.dir_find) refers to ff.o(i.xname_sum) for xname_sum
    ff.o(i.dir_find) refers to ff.o(i.ld_word) for ld_word
    ff.o(i.dir_find) refers to ffunicode.o(i.ff_wtoupper) for ff_wtoupper
    ff.o(i.dir_find) refers to ff.o(i.dir_read) for dir_read
    ff.o(i.dir_find) refers to ff.o(i.move_window) for move_window
    ff.o(i.dir_find) refers to ff.o(i.cmp_lfn) for cmp_lfn
    ff.o(i.dir_find) refers to ff.o(i.sum_sfn) for sum_sfn
    ff.o(i.dir_find) refers to memcmp.o(.text) for memcmp
    ff.o(i.dir_find) refers to ff.o(i.dir_next) for dir_next
    ff.o(i.dir_next) refers to ff.o(i.get_fat) for get_fat
    ff.o(i.dir_next) refers to ff.o(i.create_chain) for create_chain
    ff.o(i.dir_next) refers to ff.o(i.dir_clear) for dir_clear
    ff.o(i.dir_next) refers to ff.o(i.clst2sect) for clst2sect
    ff.o(i.dir_read) refers to ff.o(i.move_window) for move_window
    ff.o(i.dir_read) refers to ff.o(i.load_xdir) for load_xdir
    ff.o(i.dir_read) refers to ff.o(i.pick_lfn) for pick_lfn
    ff.o(i.dir_read) refers to ff.o(i.sum_sfn) for sum_sfn
    ff.o(i.dir_read) refers to ff.o(i.dir_next) for dir_next
    ff.o(i.dir_register) refers to ff.o(i.dir_alloc) for dir_alloc
    ff.o(i.dir_register) refers to ff.o(i.fill_first_frag) for fill_first_frag
    ff.o(i.dir_register) refers to ff.o(i.fill_last_frag) for fill_last_frag
    ff.o(i.dir_register) refers to ff.o(i.load_obj_xdir) for load_obj_xdir
    ff.o(i.dir_register) refers to ff.o(i.st_qword) for st_qword
    ff.o(i.dir_register) refers to ff.o(i.store_xdir) for store_xdir
    ff.o(i.dir_register) refers to ff.o(i.create_xdir) for create_xdir
    ff.o(i.dir_register) refers to ff.o(i.gen_numname) for gen_numname
    ff.o(i.dir_register) refers to ff.o(i.dir_find) for dir_find
    ff.o(i.dir_register) refers to ff.o(i.dir_sdi) for dir_sdi
    ff.o(i.dir_register) refers to ff.o(i.sum_sfn) for sum_sfn
    ff.o(i.dir_register) refers to ff.o(i.move_window) for move_window
    ff.o(i.dir_register) refers to ff.o(i.put_lfn) for put_lfn
    ff.o(i.dir_register) refers to ff.o(i.dir_next) for dir_next
    ff.o(i.dir_register) refers to rt_memclr.o(.text) for __aeabi_memclr
    ff.o(i.dir_remove) refers to ff.o(i.dir_sdi) for dir_sdi
    ff.o(i.dir_remove) refers to ff.o(i.move_window) for move_window
    ff.o(i.dir_remove) refers to ff.o(i.dir_next) for dir_next
    ff.o(i.dir_sdi) refers to ff.o(i.get_fat) for get_fat
    ff.o(i.dir_sdi) refers to ff.o(i.clst2sect) for clst2sect
    ff.o(i.f_close) refers to ff.o(i.f_sync) for f_sync
    ff.o(i.f_close) refers to ff.o(i.validate) for validate
    ff.o(i.f_closedir) refers to ff.o(i.validate) for validate
    ff.o(i.f_getfree) refers to ff.o(i.mount_volume) for mount_volume
    ff.o(i.f_getfree) refers to ff.o(i.get_fat) for get_fat
    ff.o(i.f_getfree) refers to ff.o(i.move_window) for move_window
    ff.o(i.f_getfree) refers to ff.o(i.ld_word) for ld_word
    ff.o(i.f_getfree) refers to ff.o(i.ld_dword) for ld_dword
    ff.o(i.f_getlabel) refers to ff.o(i.mount_volume) for mount_volume
    ff.o(i.f_getlabel) refers to ff.o(i.dir_sdi) for dir_sdi
    ff.o(i.f_getlabel) refers to ff.o(i.dir_read) for dir_read
    ff.o(i.f_getlabel) refers to ff.o(i.ld_word) for ld_word
    ff.o(i.f_getlabel) refers to ff.o(i.put_utf) for put_utf
    ff.o(i.f_getlabel) refers to ff.o(i.move_window) for move_window
    ff.o(i.f_getlabel) refers to ff.o(i.ld_dword) for ld_dword
    ff.o(i.f_gets) refers to ff.o(i.f_read) for f_read
    ff.o(i.f_lseek) refers to ff.o(i.validate) for validate
    ff.o(i.f_lseek) refers to ff.o(i.fill_last_frag) for fill_last_frag
    ff.o(i.f_lseek) refers to ff.o(i.get_fat) for get_fat
    ff.o(i.f_lseek) refers to ff.o(i.clmt_clust) for clmt_clust
    ff.o(i.f_lseek) refers to ff.o(i.clst2sect) for clst2sect
    ff.o(i.f_lseek) refers to lludivv7m.o(.text) for __aeabi_uldivmod
    ff.o(i.f_lseek) refers to diskio.o(i.disk_write) for disk_write
    ff.o(i.f_lseek) refers to diskio.o(i.disk_read) for disk_read
    ff.o(i.f_lseek) refers to ff.o(i.create_chain) for create_chain
    ff.o(i.f_mkdir) refers to ff.o(i.mount_volume) for mount_volume
    ff.o(i.f_mkdir) refers to ffsystem.o(i.ff_memalloc) for ff_memalloc
    ff.o(i.f_mkdir) refers to ff.o(i.follow_path) for follow_path
    ff.o(i.f_mkdir) refers to ff.o(i.create_chain) for create_chain
    ff.o(i.f_mkdir) refers to ffsystem.o(i.get_fattime) for get_fattime
    ff.o(i.f_mkdir) refers to ff.o(i.dir_clear) for dir_clear
    ff.o(i.f_mkdir) refers to aeabi_memset.o(.text) for __aeabi_memset
    ff.o(i.f_mkdir) refers to ff.o(i.st_dword) for st_dword
    ff.o(i.f_mkdir) refers to ff.o(i.st_clust) for st_clust
    ff.o(i.f_mkdir) refers to rt_memcpy_w.o(.text) for __aeabi_memcpy4
    ff.o(i.f_mkdir) refers to ff.o(i.dir_register) for dir_register
    ff.o(i.f_mkdir) refers to ff.o(i.store_xdir) for store_xdir
    ff.o(i.f_mkdir) refers to ff.o(i.sync_fs) for sync_fs
    ff.o(i.f_mkdir) refers to ff.o(i.remove_chain) for remove_chain
    ff.o(i.f_mkdir) refers to ffsystem.o(i.ff_memfree) for ff_memfree
    ff.o(i.f_mkfs) refers to ff.o(i.get_ldnumber) for get_ldnumber
    ff.o(i.f_mkfs) refers to diskio.o(i.disk_initialize) for disk_initialize
    ff.o(i.f_mkfs) refers to diskio.o(i.disk_ioctl) for disk_ioctl
    ff.o(i.f_mkfs) refers to ffsystem.o(i.ff_memalloc) for ff_memalloc
    ff.o(i.f_mkfs) refers to ffsystem.o(i.ff_memfree) for ff_memfree
    ff.o(i.f_mkfs) refers to ffsystem.o(i.get_fattime) for get_fattime
    ff.o(i.f_mkfs) refers to ffunicode.o(i.ff_wtoupper) for ff_wtoupper
    ff.o(i.f_mkfs) refers to ff.o(i.xsum32) for xsum32
    ff.o(i.f_mkfs) refers to diskio.o(i.disk_write) for disk_write
    ff.o(i.f_mkfs) refers to ff.o(.data) for FatFs
    ff.o(i.f_mkfs) refers to ff.o(.constdata) for defopt
    ff.o(i.f_mkfs) refers to rt_memclr.o(.text) for __aeabi_memclr
    ff.o(i.f_mkfs) refers to ff.o(i.st_dword) for st_dword
    ff.o(i.f_mkfs) refers to ff.o(i.st_qword) for st_qword
    ff.o(i.f_mkfs) refers to ff.o(i.st_word) for st_word
    ff.o(i.f_mkfs) refers to rt_memcpy_v6.o(.text) for __aeabi_memcpy
    ff.o(i.f_mkfs) refers to ff.o(i.create_partition) for create_partition
    ff.o(i.f_mount) refers to ff.o(i.get_ldnumber) for get_ldnumber
    ff.o(i.f_mount) refers to ff.o(i.mount_volume) for mount_volume
    ff.o(i.f_mount) refers to ff.o(.data) for FatFs
    ff.o(i.f_open) refers to ff.o(i.mount_volume) for mount_volume
    ff.o(i.f_open) refers to ffsystem.o(i.ff_memalloc) for ff_memalloc
    ff.o(i.f_open) refers to ff.o(i.follow_path) for follow_path
    ff.o(i.f_open) refers to ff.o(i.dir_register) for dir_register
    ff.o(i.f_open) refers to ff.o(i.init_alloc_info) for init_alloc_info
    ff.o(i.f_open) refers to rt_memclr.o(.text) for __aeabi_memclr
    ff.o(i.f_open) refers to ffsystem.o(i.get_fattime) for get_fattime
    ff.o(i.f_open) refers to ff.o(i.st_dword) for st_dword
    ff.o(i.f_open) refers to ff.o(i.store_xdir) for store_xdir
    ff.o(i.f_open) refers to ff.o(i.remove_chain) for remove_chain
    ff.o(i.f_open) refers to ff.o(i.ld_clust) for ld_clust
    ff.o(i.f_open) refers to ff.o(i.st_clust) for st_clust
    ff.o(i.f_open) refers to ff.o(i.move_window) for move_window
    ff.o(i.f_open) refers to ff.o(i.ld_dword) for ld_dword
    ff.o(i.f_open) refers to rt_memclr_w.o(.text) for __aeabi_memclr4
    ff.o(i.f_open) refers to ff.o(i.get_fat) for get_fat
    ff.o(i.f_open) refers to lludivv7m.o(.text) for __aeabi_uldivmod
    ff.o(i.f_open) refers to ff.o(i.clst2sect) for clst2sect
    ff.o(i.f_open) refers to diskio.o(i.disk_read) for disk_read
    ff.o(i.f_open) refers to ffsystem.o(i.ff_memfree) for ff_memfree
    ff.o(i.f_opendir) refers to ff.o(i.mount_volume) for mount_volume
    ff.o(i.f_opendir) refers to ffsystem.o(i.ff_memalloc) for ff_memalloc
    ff.o(i.f_opendir) refers to ff.o(i.follow_path) for follow_path
    ff.o(i.f_opendir) refers to ff.o(i.init_alloc_info) for init_alloc_info
    ff.o(i.f_opendir) refers to ff.o(i.ld_clust) for ld_clust
    ff.o(i.f_opendir) refers to ff.o(i.dir_sdi) for dir_sdi
    ff.o(i.f_opendir) refers to ffsystem.o(i.ff_memfree) for ff_memfree
    ff.o(i.f_printf) refers to ff.o(i.putc_init) for putc_init
    ff.o(i.f_printf) refers to ff.o(i.putc_bfd) for putc_bfd
    ff.o(i.f_printf) refers to ff.o(i.putc_flush) for putc_flush
    ff.o(i.f_putc) refers to ff.o(i.putc_init) for putc_init
    ff.o(i.f_putc) refers to ff.o(i.putc_bfd) for putc_bfd
    ff.o(i.f_putc) refers to ff.o(i.putc_flush) for putc_flush
    ff.o(i.f_puts) refers to ff.o(i.putc_init) for putc_init
    ff.o(i.f_puts) refers to ff.o(i.putc_bfd) for putc_bfd
    ff.o(i.f_puts) refers to ff.o(i.putc_flush) for putc_flush
    ff.o(i.f_read) refers to ff.o(i.validate) for validate
    ff.o(i.f_read) refers to lludivv7m.o(.text) for __aeabi_uldivmod
    ff.o(i.f_read) refers to ff.o(i.clmt_clust) for clmt_clust
    ff.o(i.f_read) refers to ff.o(i.get_fat) for get_fat
    ff.o(i.f_read) refers to ff.o(i.clst2sect) for clst2sect
    ff.o(i.f_read) refers to diskio.o(i.disk_read) for disk_read
    ff.o(i.f_read) refers to rt_memcpy_v6.o(.text) for __aeabi_memcpy
    ff.o(i.f_read) refers to diskio.o(i.disk_write) for disk_write
    ff.o(i.f_readdir) refers to ff.o(i.validate) for validate
    ff.o(i.f_readdir) refers to ff.o(i.dir_sdi) for dir_sdi
    ff.o(i.f_readdir) refers to ffsystem.o(i.ff_memalloc) for ff_memalloc
    ff.o(i.f_readdir) refers to ff.o(i.dir_read) for dir_read
    ff.o(i.f_readdir) refers to ff.o(i.get_fileinfo) for get_fileinfo
    ff.o(i.f_readdir) refers to ff.o(i.dir_next) for dir_next
    ff.o(i.f_readdir) refers to ffsystem.o(i.ff_memfree) for ff_memfree
    ff.o(i.f_rename) refers to ff.o(i.get_ldnumber) for get_ldnumber
    ff.o(i.f_rename) refers to ff.o(i.mount_volume) for mount_volume
    ff.o(i.f_rename) refers to ffsystem.o(i.ff_memalloc) for ff_memalloc
    ff.o(i.f_rename) refers to ff.o(i.follow_path) for follow_path
    ff.o(i.f_rename) refers to rt_memcpy_v6.o(.text) for __aeabi_memcpy
    ff.o(i.f_rename) refers to rt_memcpy_w.o(.text) for __aeabi_memcpy4
    ff.o(i.f_rename) refers to ff.o(i.dir_register) for dir_register
    ff.o(i.f_rename) refers to ff.o(i.ld_word) for ld_word
    ff.o(i.f_rename) refers to ff.o(i.st_word) for st_word
    ff.o(i.f_rename) refers to ff.o(i.store_xdir) for store_xdir
    ff.o(i.f_rename) refers to ff.o(i.ld_clust) for ld_clust
    ff.o(i.f_rename) refers to ff.o(i.clst2sect) for clst2sect
    ff.o(i.f_rename) refers to ff.o(i.move_window) for move_window
    ff.o(i.f_rename) refers to ff.o(i.st_clust) for st_clust
    ff.o(i.f_rename) refers to ff.o(i.dir_remove) for dir_remove
    ff.o(i.f_rename) refers to ff.o(i.sync_fs) for sync_fs
    ff.o(i.f_rename) refers to ffsystem.o(i.ff_memfree) for ff_memfree
    ff.o(i.f_setlabel) refers to ff.o(i.mount_volume) for mount_volume
    ff.o(i.f_setlabel) refers to rt_memclr_w.o(.text) for __aeabi_memclr4
    ff.o(i.f_setlabel) refers to ff.o(i.tchar2uni) for tchar2uni
    ff.o(i.f_setlabel) refers to ff.o(i.st_word) for st_word
    ff.o(i.f_setlabel) refers to strchr.o(.text) for strchr
    ff.o(i.f_setlabel) refers to aeabi_memset.o(.text) for __aeabi_memset
    ff.o(i.f_setlabel) refers to ffunicode.o(i.ff_wtoupper) for ff_wtoupper
    ff.o(i.f_setlabel) refers to ffunicode.o(i.ff_uni2oem) for ff_uni2oem
    ff.o(i.f_setlabel) refers to ff.o(i.dir_sdi) for dir_sdi
    ff.o(i.f_setlabel) refers to ff.o(i.dir_read) for dir_read
    ff.o(i.f_setlabel) refers to rt_memcpy_v6.o(.text) for __aeabi_memcpy
    ff.o(i.f_setlabel) refers to ff.o(i.sync_fs) for sync_fs
    ff.o(i.f_setlabel) refers to ff.o(i.dir_alloc) for dir_alloc
    ff.o(i.f_setlabel) refers to rt_memclr.o(.text) for __aeabi_memclr
    ff.o(i.f_setlabel) refers to ff.o(.constdata) for badchr
    ff.o(i.f_stat) refers to ff.o(i.mount_volume) for mount_volume
    ff.o(i.f_stat) refers to ffsystem.o(i.ff_memalloc) for ff_memalloc
    ff.o(i.f_stat) refers to ff.o(i.follow_path) for follow_path
    ff.o(i.f_stat) refers to ff.o(i.get_fileinfo) for get_fileinfo
    ff.o(i.f_stat) refers to ffsystem.o(i.ff_memfree) for ff_memfree
    ff.o(i.f_sync) refers to ff.o(i.validate) for validate
    ff.o(i.f_sync) refers to diskio.o(i.disk_write) for disk_write
    ff.o(i.f_sync) refers to ffsystem.o(i.get_fattime) for get_fattime
    ff.o(i.f_sync) refers to ff.o(i.fill_first_frag) for fill_first_frag
    ff.o(i.f_sync) refers to ff.o(i.fill_last_frag) for fill_last_frag
    ff.o(i.f_sync) refers to ffsystem.o(i.ff_memalloc) for ff_memalloc
    ff.o(i.f_sync) refers to ff.o(i.load_obj_xdir) for load_obj_xdir
    ff.o(i.f_sync) refers to ff.o(i.st_dword) for st_dword
    ff.o(i.f_sync) refers to ff.o(i.st_qword) for st_qword
    ff.o(i.f_sync) refers to ff.o(i.store_xdir) for store_xdir
    ff.o(i.f_sync) refers to ff.o(i.sync_fs) for sync_fs
    ff.o(i.f_sync) refers to ffsystem.o(i.ff_memfree) for ff_memfree
    ff.o(i.f_sync) refers to ff.o(i.move_window) for move_window
    ff.o(i.f_sync) refers to ff.o(i.st_clust) for st_clust
    ff.o(i.f_sync) refers to ff.o(i.st_word) for st_word
    ff.o(i.f_truncate) refers to ff.o(i.validate) for validate
    ff.o(i.f_truncate) refers to ff.o(i.remove_chain) for remove_chain
    ff.o(i.f_truncate) refers to ff.o(i.get_fat) for get_fat
    ff.o(i.f_truncate) refers to diskio.o(i.disk_write) for disk_write
    ff.o(i.f_unlink) refers to ff.o(i.mount_volume) for mount_volume
    ff.o(i.f_unlink) refers to ffsystem.o(i.ff_memalloc) for ff_memalloc
    ff.o(i.f_unlink) refers to ff.o(i.follow_path) for follow_path
    ff.o(i.f_unlink) refers to ff.o(i.init_alloc_info) for init_alloc_info
    ff.o(i.f_unlink) refers to ff.o(i.ld_clust) for ld_clust
    ff.o(i.f_unlink) refers to ff.o(i.dir_sdi) for dir_sdi
    ff.o(i.f_unlink) refers to ff.o(i.dir_read) for dir_read
    ff.o(i.f_unlink) refers to ff.o(i.dir_remove) for dir_remove
    ff.o(i.f_unlink) refers to ff.o(i.remove_chain) for remove_chain
    ff.o(i.f_unlink) refers to ff.o(i.sync_fs) for sync_fs
    ff.o(i.f_unlink) refers to ffsystem.o(i.ff_memfree) for ff_memfree
    ff.o(i.f_write) refers to ff.o(i.validate) for validate
    ff.o(i.f_write) refers to lludivv7m.o(.text) for __aeabi_uldivmod
    ff.o(i.f_write) refers to ff.o(i.create_chain) for create_chain
    ff.o(i.f_write) refers to ff.o(i.clmt_clust) for clmt_clust
    ff.o(i.f_write) refers to diskio.o(i.disk_write) for disk_write
    ff.o(i.f_write) refers to ff.o(i.clst2sect) for clst2sect
    ff.o(i.f_write) refers to rt_memcpy_v6.o(.text) for __aeabi_memcpy
    ff.o(i.f_write) refers to diskio.o(i.disk_read) for disk_read
    ff.o(i.fill_first_frag) refers to ff.o(i.put_fat) for put_fat
    ff.o(i.fill_last_frag) refers to ff.o(i.put_fat) for put_fat
    ff.o(i.find_bitmap) refers to ff.o(i.move_window) for move_window
    ff.o(i.find_volume) refers to ff.o(i.check_fs) for check_fs
    ff.o(i.find_volume) refers to ff.o(i.ld_dword) for ld_dword
    ff.o(i.follow_path) refers to ff.o(i.dir_sdi) for dir_sdi
    ff.o(i.follow_path) refers to ff.o(i.create_name) for create_name
    ff.o(i.follow_path) refers to ff.o(i.dir_find) for dir_find
    ff.o(i.follow_path) refers to ff.o(i.init_alloc_info) for init_alloc_info
    ff.o(i.follow_path) refers to ff.o(i.ld_clust) for ld_clust
    ff.o(i.gen_numname) refers to ff.o(i.dbc_1st) for dbc_1st
    ff.o(i.get_fat) refers to ff.o(i.move_window) for move_window
    ff.o(i.get_fat) refers to ff.o(i.ld_word) for ld_word
    ff.o(i.get_fat) refers to ff.o(i.ld_dword) for ld_dword
    ff.o(i.get_fat) refers to lludivv7m.o(.text) for __aeabi_uldivmod
    ff.o(i.get_fileinfo) refers to ff.o(i.ld_word) for ld_word
    ff.o(i.get_fileinfo) refers to ff.o(i.put_utf) for put_utf
    ff.o(i.get_fileinfo) refers to ff.o(i.ld_qword) for ld_qword
    ff.o(i.get_fileinfo) refers to ff.o(i.ld_dword) for ld_dword
    ff.o(i.init_alloc_info) refers to ff.o(i.ld_dword) for ld_dword
    ff.o(i.init_alloc_info) refers to ff.o(i.ld_qword) for ld_qword
    ff.o(i.ld_clust) refers to ff.o(i.ld_word) for ld_word
    ff.o(i.load_obj_xdir) refers to ff.o(i.dir_sdi) for dir_sdi
    ff.o(i.load_obj_xdir) refers to ff.o(i.load_xdir) for load_xdir
    ff.o(i.load_xdir) refers to ff.o(i.move_window) for move_window
    ff.o(i.load_xdir) refers to rt_memcpy_v6.o(.text) for __aeabi_memcpy
    ff.o(i.load_xdir) refers to ff.o(i.dir_next) for dir_next
    ff.o(i.load_xdir) refers to ff.o(i.xdir_sum) for xdir_sum
    ff.o(i.load_xdir) refers to ff.o(i.ld_word) for ld_word
    ff.o(i.mount_volume) refers to ff.o(i.get_ldnumber) for get_ldnumber
    ff.o(i.mount_volume) refers to diskio.o(i.disk_status) for disk_status
    ff.o(i.mount_volume) refers to diskio.o(i.disk_initialize) for disk_initialize
    ff.o(i.mount_volume) refers to ff.o(i.find_volume) for find_volume
    ff.o(i.mount_volume) refers to ff.o(i.ld_word) for ld_word
    ff.o(i.mount_volume) refers to ff.o(i.ld_qword) for ld_qword
    ff.o(i.mount_volume) refers to ff.o(i.ld_dword) for ld_dword
    ff.o(i.mount_volume) refers to ff.o(i.clst2sect) for clst2sect
    ff.o(i.mount_volume) refers to ff.o(i.move_window) for move_window
    ff.o(i.mount_volume) refers to ff.o(.data) for FatFs
    ff.o(i.move_window) refers to ff.o(i.sync_window) for sync_window
    ff.o(i.move_window) refers to diskio.o(i.disk_read) for disk_read
    ff.o(i.pick_lfn) refers to ff.o(i.ld_word) for ld_word
    ff.o(i.pick_lfn) refers to ff.o(.constdata) for LfnOfs
    ff.o(i.put_fat) refers to ff.o(i.move_window) for move_window
    ff.o(i.put_fat) refers to ff.o(i.st_word) for st_word
    ff.o(i.put_fat) refers to ff.o(i.ld_dword) for ld_dword
    ff.o(i.put_fat) refers to ff.o(i.st_dword) for st_dword
    ff.o(i.put_lfn) refers to ff.o(i.st_word) for st_word
    ff.o(i.put_lfn) refers to ff.o(.constdata) for LfnOfs
    ff.o(i.put_utf) refers to ffunicode.o(i.ff_uni2oem) for ff_uni2oem
    ff.o(i.putc_bfd) refers to ff.o(i.f_write) for f_write
    ff.o(i.putc_flush) refers to ff.o(i.f_write) for f_write
    ff.o(i.putc_init) refers to rt_memclr_w.o(.text) for __aeabi_memclr4
    ff.o(i.remove_chain) refers to ff.o(i.put_fat) for put_fat
    ff.o(i.remove_chain) refers to ff.o(i.get_fat) for get_fat
    ff.o(i.remove_chain) refers to ff.o(i.change_bitmap) for change_bitmap
    ff.o(i.st_clust) refers to ff.o(i.st_word) for st_word
    ff.o(i.store_xdir) refers to ff.o(i.xdir_sum) for xdir_sum
    ff.o(i.store_xdir) refers to ff.o(i.st_word) for st_word
    ff.o(i.store_xdir) refers to ff.o(i.dir_sdi) for dir_sdi
    ff.o(i.store_xdir) refers to ff.o(i.move_window) for move_window
    ff.o(i.store_xdir) refers to rt_memcpy_v6.o(.text) for __aeabi_memcpy
    ff.o(i.store_xdir) refers to ff.o(i.dir_next) for dir_next
    ff.o(i.sync_fs) refers to ff.o(i.sync_window) for sync_window
    ff.o(i.sync_fs) refers to rt_memclr_w.o(.text) for __aeabi_memclr4
    ff.o(i.sync_fs) refers to ff.o(i.st_word) for st_word
    ff.o(i.sync_fs) refers to ff.o(i.st_dword) for st_dword
    ff.o(i.sync_fs) refers to diskio.o(i.disk_write) for disk_write
    ff.o(i.sync_fs) refers to diskio.o(i.disk_ioctl) for disk_ioctl
    ff.o(i.sync_window) refers to diskio.o(i.disk_write) for disk_write
    ff.o(i.tchar2uni) refers to ff.o(i.dbc_1st) for dbc_1st
    ff.o(i.tchar2uni) refers to ff.o(i.dbc_2nd) for dbc_2nd
    ff.o(i.tchar2uni) refers to ffunicode.o(i.ff_oem2uni) for ff_oem2uni
    ff.o(i.validate) refers to diskio.o(i.disk_status) for disk_status
    ff.o(i.xname_sum) refers to ffunicode.o(i.ff_wtoupper) for ff_wtoupper
    ffsystem.o(i.ff_memalloc) refers to malloc.o(i.mymalloc) for mymalloc
    ffsystem.o(i.ff_memfree) refers to malloc.o(i.myfree) for myfree
    ffunicode.o(i.ff_oem2uni) refers to ffunicode.o(.constdata) for oem2uni936
    ffunicode.o(i.ff_uni2oem) refers to ffunicode.o(.constdata) for uni2oem936
    ffunicode.o(i.ff_wtoupper) refers to ffunicode.o(.constdata) for cvt1
    exfuns.o(i.exfuns_file_copy) refers to malloc.o(i.mymalloc) for mymalloc
    exfuns.o(i.exfuns_file_copy) refers to ff.o(i.f_open) for f_open
    exfuns.o(i.exfuns_file_copy) refers to lludivv7m.o(.text) for __aeabi_uldivmod
    exfuns.o(i.exfuns_file_copy) refers to ff.o(i.f_read) for f_read
    exfuns.o(i.exfuns_file_copy) refers to ff.o(i.f_write) for f_write
    exfuns.o(i.exfuns_file_copy) refers to ff.o(i.f_close) for f_close
    exfuns.o(i.exfuns_file_copy) refers to malloc.o(i.myfree) for myfree
    exfuns.o(i.exfuns_file_type) refers to strcpy.o(.text) for strcpy
    exfuns.o(i.exfuns_file_type) refers to exfuns.o(i.exfuns_char_upper) for exfuns_char_upper
    exfuns.o(i.exfuns_file_type) refers to strcmpv7m.o(.text) for strcmp
    exfuns.o(i.exfuns_file_type) refers to exfuns.o(.constdata) for FILE_TYPE_TBL
    exfuns.o(i.exfuns_folder_copy) refers to malloc.o(i.mymalloc) for mymalloc
    exfuns.o(i.exfuns_folder_copy) refers to strcat.o(.text) for strcat
    exfuns.o(i.exfuns_folder_copy) refers to ff.o(i.f_opendir) for f_opendir
    exfuns.o(i.exfuns_folder_copy) refers to exfuns.o(i.exfuns_get_src_dname) for exfuns_get_src_dname
    exfuns.o(i.exfuns_folder_copy) refers to strlen.o(.text) for strlen
    exfuns.o(i.exfuns_folder_copy) refers to ff.o(i.f_mkdir) for f_mkdir
    exfuns.o(i.exfuns_folder_copy) refers to ff.o(i.f_readdir) for f_readdir
    exfuns.o(i.exfuns_folder_copy) refers to exfuns.o(i.exfuns_file_copy) for exfuns_file_copy
    exfuns.o(i.exfuns_folder_copy) refers to malloc.o(i.myfree) for myfree
    exfuns.o(i.exfuns_get_folder_size) refers to malloc.o(i.mymalloc) for mymalloc
    exfuns.o(i.exfuns_get_folder_size) refers to strcat.o(.text) for strcat
    exfuns.o(i.exfuns_get_folder_size) refers to ff.o(i.f_opendir) for f_opendir
    exfuns.o(i.exfuns_get_folder_size) refers to ff.o(i.f_readdir) for f_readdir
    exfuns.o(i.exfuns_get_folder_size) refers to strlen.o(.text) for strlen
    exfuns.o(i.exfuns_get_folder_size) refers to malloc.o(i.myfree) for myfree
    exfuns.o(i.exfuns_get_free) refers to ff.o(i.f_getfree) for f_getfree
    exfuns.o(i.exfuns_init) refers to malloc.o(i.mymalloc) for mymalloc
    exfuns.o(i.exfuns_init) refers to fattester.o(i.mf_init) for mf_init
    exfuns.o(i.exfuns_init) refers to exfuns.o(.data) for fs
    exfuns.o(.constdata) refers to exfuns.o(.conststring) for .conststring
    fattester.o(i.mf_close) refers to ff.o(i.f_close) for f_close
    fattester.o(i.mf_close) refers to fattester.o(.bss) for fattester
    fattester.o(i.mf_closedir) refers to ff.o(i.f_closedir) for f_closedir
    fattester.o(i.mf_closedir) refers to fattester.o(.bss) for fattester
    fattester.o(i.mf_fmkfs) refers to ff.o(i.f_mkfs) for f_mkfs
    fattester.o(i.mf_fmkfs) refers to fattester.o(.constdata) for .constdata
    fattester.o(i.mf_free) refers to malloc.o(i.myfree) for myfree
    fattester.o(i.mf_free) refers to fattester.o(.bss) for fattester
    fattester.o(i.mf_getlabel) refers to _printf_percent.o(.ARM.Collect$$_printf_percent$$00000000) for _printf_percent
    fattester.o(i.mf_getlabel) refers to _printf_s.o(.ARM.Collect$$_printf_percent$$00000014) for _printf_s
    fattester.o(i.mf_getlabel) refers to _printf_str.o(.text) for _printf_str
    fattester.o(i.mf_getlabel) refers to _printf_x.o(.ARM.Collect$$_printf_percent$$0000000C) for _printf_x
    fattester.o(i.mf_getlabel) refers to _printf_hex_int.o(.text) for _printf_longlong_hex
    fattester.o(i.mf_getlabel) refers to ff.o(i.f_getlabel) for f_getlabel
    fattester.o(i.mf_getlabel) refers to noretval__2printf.o(.text) for __2printf
    fattester.o(i.mf_gets) refers to _printf_percent.o(.ARM.Collect$$_printf_percent$$00000000) for _printf_percent
    fattester.o(i.mf_gets) refers to _printf_s.o(.ARM.Collect$$_printf_percent$$00000014) for _printf_s
    fattester.o(i.mf_gets) refers to _printf_str.o(.text) for _printf_str
    fattester.o(i.mf_gets) refers to ff.o(i.f_gets) for f_gets
    fattester.o(i.mf_gets) refers to noretval__2printf.o(.text) for __2printf
    fattester.o(i.mf_gets) refers to fattester.o(.bss) for fattester
    fattester.o(i.mf_init) refers to malloc.o(i.mymalloc) for mymalloc
    fattester.o(i.mf_init) refers to fattester.o(i.mf_free) for mf_free
    fattester.o(i.mf_init) refers to fattester.o(.bss) for fattester
    fattester.o(i.mf_lseek) refers to ff.o(i.f_lseek) for f_lseek
    fattester.o(i.mf_lseek) refers to fattester.o(.bss) for fattester
    fattester.o(i.mf_mkdir) refers to ff.o(i.f_mkdir) for f_mkdir
    fattester.o(i.mf_mount) refers to ff.o(i.f_mount) for f_mount
    fattester.o(i.mf_mount) refers to exfuns.o(.data) for fs
    fattester.o(i.mf_open) refers to ff.o(i.f_open) for f_open
    fattester.o(i.mf_open) refers to fattester.o(.bss) for fattester
    fattester.o(i.mf_opendir) refers to ff.o(i.f_opendir) for f_opendir
    fattester.o(i.mf_opendir) refers to fattester.o(.bss) for fattester
    fattester.o(i.mf_putc) refers to ff.o(i.f_putc) for f_putc
    fattester.o(i.mf_putc) refers to fattester.o(.bss) for fattester
    fattester.o(i.mf_puts) refers to ff.o(i.f_puts) for f_puts
    fattester.o(i.mf_puts) refers to fattester.o(.bss) for fattester
    fattester.o(i.mf_read) refers to _printf_percent.o(.ARM.Collect$$_printf_percent$$00000000) for _printf_percent
    fattester.o(i.mf_read) refers to _printf_d.o(.ARM.Collect$$_printf_percent$$00000009) for _printf_d
    fattester.o(i.mf_read) refers to _printf_dec.o(.text) for _printf_int_dec
    fattester.o(i.mf_read) refers to _printf_c.o(.ARM.Collect$$_printf_percent$$00000013) for _printf_c
    fattester.o(i.mf_read) refers to _printf_str.o(.text) for _printf_str
    fattester.o(i.mf_read) refers to noretval__2printf.o(.text) for __2printf
    fattester.o(i.mf_read) refers to ff.o(i.f_read) for f_read
    fattester.o(i.mf_read) refers to fattester.o(.bss) for fattester
    fattester.o(i.mf_readdir) refers to _printf_percent.o(.ARM.Collect$$_printf_percent$$00000000) for _printf_percent
    fattester.o(i.mf_readdir) refers to _printf_d.o(.ARM.Collect$$_printf_percent$$00000009) for _printf_d
    fattester.o(i.mf_readdir) refers to _printf_dec.o(.text) for _printf_int_dec
    fattester.o(i.mf_readdir) refers to _printf_lld.o(.ARM.Collect$$_printf_percent$$0000000E) for _printf_lld
    fattester.o(i.mf_readdir) refers to _printf_longlong_dec.o(.text) for _printf_longlong_dec
    fattester.o(i.mf_readdir) refers to _printf_s.o(.ARM.Collect$$_printf_percent$$00000014) for _printf_s
    fattester.o(i.mf_readdir) refers to _printf_str.o(.text) for _printf_str
    fattester.o(i.mf_readdir) refers to ff.o(i.f_readdir) for f_readdir
    fattester.o(i.mf_readdir) refers to noretval__2printf.o(.text) for __2printf
    fattester.o(i.mf_readdir) refers to fattester.o(.bss) for fattester
    fattester.o(i.mf_rename) refers to ff.o(i.f_rename) for f_rename
    fattester.o(i.mf_scan_files) refers to _printf_percent.o(.ARM.Collect$$_printf_percent$$00000000) for _printf_percent
    fattester.o(i.mf_scan_files) refers to _printf_s.o(.ARM.Collect$$_printf_percent$$00000014) for _printf_s
    fattester.o(i.mf_scan_files) refers to _printf_str.o(.text) for _printf_str
    fattester.o(i.mf_scan_files) refers to ff.o(i.f_opendir) for f_opendir
    fattester.o(i.mf_scan_files) refers to noretval__2printf.o(.text) for __2printf
    fattester.o(i.mf_scan_files) refers to ff.o(i.f_readdir) for f_readdir
    fattester.o(i.mf_scan_files) refers to fattester.o(.bss) for fattester
    fattester.o(i.mf_setlabel) refers to _printf_percent.o(.ARM.Collect$$_printf_percent$$00000000) for _printf_percent
    fattester.o(i.mf_setlabel) refers to _printf_s.o(.ARM.Collect$$_printf_percent$$00000014) for _printf_s
    fattester.o(i.mf_setlabel) refers to _printf_str.o(.text) for _printf_str
    fattester.o(i.mf_setlabel) refers to _printf_x.o(.ARM.Collect$$_printf_percent$$0000000C) for _printf_x
    fattester.o(i.mf_setlabel) refers to _printf_hex_int.o(.text) for _printf_longlong_hex
    fattester.o(i.mf_setlabel) refers to ff.o(i.f_setlabel) for f_setlabel
    fattester.o(i.mf_setlabel) refers to noretval__2printf.o(.text) for __2printf
    fattester.o(i.mf_showfree) refers to _printf_percent.o(.ARM.Collect$$_printf_percent$$00000000) for _printf_percent
    fattester.o(i.mf_showfree) refers to _printf_d.o(.ARM.Collect$$_printf_percent$$00000009) for _printf_d
    fattester.o(i.mf_showfree) refers to _printf_dec.o(.text) for _printf_int_dec
    fattester.o(i.mf_showfree) refers to ff.o(i.f_getfree) for f_getfree
    fattester.o(i.mf_showfree) refers to noretval__2printf.o(.text) for __2printf
    fattester.o(i.mf_size) refers to fattester.o(.bss) for fattester
    fattester.o(i.mf_tell) refers to fattester.o(.bss) for fattester
    fattester.o(i.mf_unlink) refers to ff.o(i.f_unlink) for f_unlink
    fattester.o(i.mf_write) refers to _printf_percent.o(.ARM.Collect$$_printf_percent$$00000000) for _printf_percent
    fattester.o(i.mf_write) refers to _printf_d.o(.ARM.Collect$$_printf_percent$$00000009) for _printf_d
    fattester.o(i.mf_write) refers to _printf_dec.o(.text) for _printf_int_dec
    fattester.o(i.mf_write) refers to noretval__2printf.o(.text) for __2printf
    fattester.o(i.mf_write) refers to ff.o(i.f_write) for f_write
    fattester.o(i.mf_write) refers to fattester.o(.bss) for fattester
    usmart.o(i.usmart_cmd_rec) refers to usmart_str.o(i.usmart_get_fname) for usmart_get_fname
    usmart.o(i.usmart_cmd_rec) refers to usmart_str.o(i.usmart_strcmp) for usmart_strcmp
    usmart.o(i.usmart_cmd_rec) refers to usmart_str.o(i.usmart_get_fparam) for usmart_get_fparam
    usmart.o(i.usmart_cmd_rec) refers to usmart_config.o(.data) for usmart_dev
    usmart.o(i.usmart_exe) refers to _printf_percent.o(.ARM.Collect$$_printf_percent$$00000000) for _printf_percent
    usmart.o(i.usmart_exe) refers to _printf_s.o(.ARM.Collect$$_printf_percent$$00000014) for _printf_s
    usmart.o(i.usmart_exe) refers to _printf_str.o(.text) for _printf_str
    usmart.o(i.usmart_exe) refers to _printf_c.o(.ARM.Collect$$_printf_percent$$00000013) for _printf_c
    usmart.o(i.usmart_exe) refers to _printf_d.o(.ARM.Collect$$_printf_percent$$00000009) for _printf_d
    usmart.o(i.usmart_exe) refers to _printf_dec.o(.text) for _printf_int_dec
    usmart.o(i.usmart_exe) refers to _printf_x.o(.ARM.Collect$$_printf_percent$$0000000C) for _printf_x
    usmart.o(i.usmart_exe) refers to _printf_hex_int.o(.text) for _printf_longlong_hex
    usmart.o(i.usmart_exe) refers to _printf_u.o(.ARM.Collect$$_printf_percent$$0000000A) for _printf_u
    usmart.o(i.usmart_exe) refers to _printf_pad.o(.text) for _printf_pre_padding
    usmart.o(i.usmart_exe) refers to usmart_str.o(i.usmart_get_fname) for usmart_get_fname
    usmart.o(i.usmart_exe) refers to noretval__2printf.o(.text) for __2printf
    usmart.o(i.usmart_exe) refers to usmart_str.o(i.usmart_get_parmpos) for usmart_get_parmpos
    usmart.o(i.usmart_exe) refers to usmart_port.o(i.usmart_timx_reset_time) for usmart_timx_reset_time
    usmart.o(i.usmart_exe) refers to usmart_port.o(i.usmart_timx_get_time) for usmart_timx_get_time
    usmart.o(i.usmart_exe) refers to usmart_config.o(.data) for usmart_dev
    usmart.o(i.usmart_init) refers to usmart_port.o(i.usmart_timx_init) for usmart_timx_init
    usmart.o(i.usmart_init) refers to usmart_config.o(.data) for usmart_dev
    usmart.o(i.usmart_scan) refers to usmart_port.o(i.usmart_get_input_string) for usmart_get_input_string
    usmart.o(i.usmart_scan) refers to usmart.o(i.usmart_sys_cmd_exe) for usmart_sys_cmd_exe
    usmart.o(i.usmart_scan) refers to noretval__2printf.o(.text) for __2printf
    usmart.o(i.usmart_scan) refers to usmart_config.o(.data) for usmart_dev
    usmart.o(i.usmart_sys_cmd_exe) refers to _printf_percent.o(.ARM.Collect$$_printf_percent$$00000000) for _printf_percent
    usmart.o(i.usmart_sys_cmd_exe) refers to _printf_s.o(.ARM.Collect$$_printf_percent$$00000014) for _printf_s
    usmart.o(i.usmart_sys_cmd_exe) refers to _printf_str.o(.text) for _printf_str
    usmart.o(i.usmart_sys_cmd_exe) refers to _printf_pad.o(.text) for _printf_pre_padding
    usmart.o(i.usmart_sys_cmd_exe) refers to _printf_x.o(.ARM.Collect$$_printf_percent$$0000000C) for _printf_x
    usmart.o(i.usmart_sys_cmd_exe) refers to _printf_hex_int.o(.text) for _printf_longlong_hex
    usmart.o(i.usmart_sys_cmd_exe) refers to _printf_u.o(.ARM.Collect$$_printf_percent$$0000000A) for _printf_u
    usmart.o(i.usmart_sys_cmd_exe) refers to _printf_dec.o(.text) for _printf_int_dec
    usmart.o(i.usmart_sys_cmd_exe) refers to usmart_str.o(i.usmart_get_cmdname) for usmart_get_cmdname
    usmart.o(i.usmart_sys_cmd_exe) refers to usmart_str.o(i.usmart_strcmp) for usmart_strcmp
    usmart.o(i.usmart_sys_cmd_exe) refers to noretval__2printf.o(.text) for __2printf
    usmart.o(i.usmart_sys_cmd_exe) refers to usmart.o(.data) for sys_cmd_tab
    usmart.o(i.usmart_sys_cmd_exe) refers to usmart_config.o(.data) for usmart_dev
    usmart.o(i.usmart_sys_cmd_exe) refers to usmart_str.o(i.usmart_get_fname) for usmart_get_fname
    usmart.o(i.usmart_sys_cmd_exe) refers to usmart_str.o(i.usmart_get_aparm) for usmart_get_aparm
    usmart.o(i.usmart_sys_cmd_exe) refers to usmart_str.o(i.usmart_str2num) for usmart_str2num
    usmart.o(.data) refers to usmart.o(.conststring) for .conststring
    usmart_config.o(.data) refers to usmart.o(i.read_addr) for read_addr
    usmart_config.o(.data) refers to usmart_config.o(.conststring) for .conststring
    usmart_config.o(.data) refers to usmart.o(i.write_addr) for write_addr
    usmart_config.o(.data) refers to delay.o(i.delay_ms) for delay_ms
    usmart_config.o(.data) refers to delay.o(i.delay_us) for delay_us
    usmart_config.o(.data) refers to fattester.o(i.mf_mount) for mf_mount
    usmart_config.o(.data) refers to fattester.o(i.mf_open) for mf_open
    usmart_config.o(.data) refers to fattester.o(i.mf_close) for mf_close
    usmart_config.o(.data) refers to fattester.o(i.mf_read) for mf_read
    usmart_config.o(.data) refers to fattester.o(i.mf_write) for mf_write
    usmart_config.o(.data) refers to fattester.o(i.mf_opendir) for mf_opendir
    usmart_config.o(.data) refers to fattester.o(i.mf_closedir) for mf_closedir
    usmart_config.o(.data) refers to fattester.o(i.mf_readdir) for mf_readdir
    usmart_config.o(.data) refers to fattester.o(i.mf_scan_files) for mf_scan_files
    usmart_config.o(.data) refers to fattester.o(i.mf_showfree) for mf_showfree
    usmart_config.o(.data) refers to fattester.o(i.mf_lseek) for mf_lseek
    usmart_config.o(.data) refers to fattester.o(i.mf_tell) for mf_tell
    usmart_config.o(.data) refers to fattester.o(i.mf_size) for mf_size
    usmart_config.o(.data) refers to fattester.o(i.mf_mkdir) for mf_mkdir
    usmart_config.o(.data) refers to fattester.o(i.mf_fmkfs) for mf_fmkfs
    usmart_config.o(.data) refers to fattester.o(i.mf_unlink) for mf_unlink
    usmart_config.o(.data) refers to fattester.o(i.mf_rename) for mf_rename
    usmart_config.o(.data) refers to fattester.o(i.mf_getlabel) for mf_getlabel
    usmart_config.o(.data) refers to fattester.o(i.mf_setlabel) for mf_setlabel
    usmart_config.o(.data) refers to fattester.o(i.mf_gets) for mf_gets
    usmart_config.o(.data) refers to fattester.o(i.mf_putc) for mf_putc
    usmart_config.o(.data) refers to fattester.o(i.mf_puts) for mf_puts
    usmart_config.o(.data) refers to usmart.o(i.usmart_init) for usmart_init
    usmart_config.o(.data) refers to usmart.o(i.usmart_cmd_rec) for usmart_cmd_rec
    usmart_config.o(.data) refers to usmart.o(i.usmart_exe) for usmart_exe
    usmart_config.o(.data) refers to usmart.o(i.usmart_scan) for usmart_scan
    usmart_port.o(i.TIM4_IRQHandler) refers to usmart_config.o(.data) for usmart_dev
    usmart_port.o(i.usmart_get_input_string) refers to usart.o(.data) for g_usart_rx_sta
    usmart_port.o(i.usmart_get_input_string) refers to usart.o(.bss) for g_usart_rx_buf
    usmart_port.o(i.usmart_timx_get_time) refers to usmart_config.o(.data) for usmart_dev
    usmart_port.o(i.usmart_timx_init) refers to sys.o(i.sys_nvic_init) for sys_nvic_init
    usmart_port.o(i.usmart_timx_reset_time) refers to usmart_config.o(.data) for usmart_dev
    usmart_str.o(i.usmart_get_fname) refers to usmart_str.o(i.usmart_strcmp) for usmart_strcmp
    usmart_str.o(i.usmart_get_fname) refers to usmart_str.o(i.usmart_search_nextc) for usmart_search_nextc
    usmart_str.o(i.usmart_get_fparam) refers to usmart_str.o(i.usmart_get_aparm) for usmart_get_aparm
    usmart_str.o(i.usmart_get_fparam) refers to usmart_str.o(i.usmart_str2num) for usmart_str2num
    usmart_str.o(i.usmart_get_fparam) refers to usmart_str.o(i.usmart_get_parmpos) for usmart_get_parmpos
    usmart_str.o(i.usmart_get_fparam) refers to usmart_str.o(i.usmart_strlen) for usmart_strlen
    usmart_str.o(i.usmart_get_fparam) refers to usmart_str.o(i.usmart_strcopy) for usmart_strcopy
    usmart_str.o(i.usmart_get_fparam) refers to usmart_config.o(.data) for usmart_dev
    usmart_str.o(i.usmart_get_parmpos) refers to usmart_config.o(.data) for usmart_dev
    usmart_str.o(i.usmart_str2num) refers to usmart_str.o(i.usmart_pow) for usmart_pow
    use_no_semi_2.o(.text) refers (Special) to use_no_semi.o(.text) for __use_no_semihosting_swi
    llsdiv.o(.text) refers to lludivv7m.o(.text) for __aeabi_uldivmod
    __2printf.o(.text) refers to _printf_char_file.o(.text) for _printf_char_file
    __2printf.o(.text) refers to usart.o(.data) for __stdout
    noretval__2printf.o(.text) refers to _printf_char_file.o(.text) for _printf_char_file
    noretval__2printf.o(.text) refers to usart.o(.data) for __stdout
    __printf.o(.text) refers to _printf_percent.o(.ARM.Collect$$_printf_percent$$00000000) for _printf_percent
    _printf_str.o(.text) refers (Special) to _printf_char.o(.text) for _printf_cs_common
    _printf_str.o(.text) refers (Weak) to _printf_pad.o(.text) for _printf_pre_padding
    _printf_str.o(.text) refers (Weak) to _printf_pad.o(.text) for _printf_post_padding
    _printf_dec.o(.text) refers to _printf_intcommon.o(.text) for _printf_int_common
    _printf_longlong_dec.o(.text) refers to lludiv10.o(.text) for _ll_udiv10
    _printf_longlong_dec.o(.text) refers to _printf_intcommon.o(.text) for _printf_int_common
    _printf_hex_ll.o(.text) refers to _printf_intcommon.o(.text) for _printf_int_common
    _printf_hex_ll.o(.text) refers to _printf_hex_ll.o(.constdata) for .constdata
    _printf_hex_int.o(.text) refers to _printf_intcommon.o(.text) for _printf_int_common
    _printf_hex_int.o(.text) refers to _printf_hex_int.o(.constdata) for .constdata
    _printf_hex_int_ll.o(.text) refers to _printf_intcommon.o(.text) for _printf_int_common
    _printf_hex_int_ll.o(.text) refers to _printf_hex_int_ll.o(.constdata) for .constdata
    _printf_hex_ptr.o(.text) refers to _printf_intcommon.o(.text) for _printf_int_common
    _printf_hex_ptr.o(.text) refers to _printf_hex_ptr.o(.constdata) for .constdata
    _printf_hex_int_ptr.o(.text) refers to _printf_intcommon.o(.text) for _printf_int_common
    _printf_hex_int_ptr.o(.text) refers to _printf_hex_int_ptr.o(.constdata) for .constdata
    _printf_hex_ll_ptr.o(.text) refers to _printf_intcommon.o(.text) for _printf_int_common
    _printf_hex_ll_ptr.o(.text) refers to _printf_hex_ll_ptr.o(.constdata) for .constdata
    _printf_hex_int_ll_ptr.o(.text) refers to _printf_intcommon.o(.text) for _printf_int_common
    _printf_hex_int_ll_ptr.o(.text) refers to _printf_hex_int_ll_ptr.o(.constdata) for .constdata
    __printf_flags.o(.text) refers to _printf_percent.o(.ARM.Collect$$_printf_percent$$00000000) for _printf_percent
    __printf_flags.o(.text) refers to __printf_flags.o(.constdata) for .constdata
    __printf_ss.o(.text) refers to _printf_percent.o(.ARM.Collect$$_printf_percent$$00000000) for _printf_percent
    __printf_flags_ss.o(.text) refers to _printf_percent.o(.ARM.Collect$$_printf_percent$$00000000) for _printf_percent
    __printf_flags_ss.o(.text) refers to __printf_flags_ss.o(.constdata) for .constdata
    __printf_wp.o(.text) refers to __printf_wp.o(i._is_digit) for _is_digit
    __printf_wp.o(.text) refers to _printf_percent.o(.ARM.Collect$$_printf_percent$$00000000) for _printf_percent
    __printf_flags_wp.o(.text) refers to __printf_wp.o(i._is_digit) for _is_digit
    __printf_flags_wp.o(.text) refers to _printf_percent.o(.ARM.Collect$$_printf_percent$$00000000) for _printf_percent
    __printf_flags_wp.o(.text) refers to __printf_flags_wp.o(.constdata) for .constdata
    __printf_ss_wp.o(.text) refers to __printf_wp.o(i._is_digit) for _is_digit
    __printf_ss_wp.o(.text) refers to _printf_percent.o(.ARM.Collect$$_printf_percent$$00000000) for _printf_percent
    __printf_flags_ss_wp.o(.text) refers to __printf_wp.o(i._is_digit) for _is_digit
    __printf_flags_ss_wp.o(.text) refers to _printf_percent.o(.ARM.Collect$$_printf_percent$$00000000) for _printf_percent
    __printf_flags_ss_wp.o(.text) refers to __printf_flags_ss_wp.o(.constdata) for .constdata
    _printf_c.o(.ARM.Collect$$_printf_percent$$00000013) refers (Weak) to _printf_char.o(.text) for _printf_char
    _printf_s.o(.ARM.Collect$$_printf_percent$$00000014) refers (Weak) to _printf_char.o(.text) for _printf_string
    _printf_x.o(.ARM.Collect$$_printf_percent$$0000000C) refers (Weak) to _printf_hex_int.o(.text) for _printf_int_hex
    _printf_d.o(.ARM.Collect$$_printf_percent$$00000009) refers (Weak) to _printf_dec.o(.text) for _printf_int_dec
    _printf_u.o(.ARM.Collect$$_printf_percent$$0000000A) refers (Weak) to _printf_dec.o(.text) for _printf_int_dec
    _printf_percent.o(.ARM.Collect$$_printf_percent$$00000000) refers (Special) to _printf_percent_end.o(.ARM.Collect$$_printf_percent$$00000017) for _printf_percent_end
    _printf_lld.o(.ARM.Collect$$_printf_percent$$0000000E) refers (Special) to _printf_ll.o(.ARM.Collect$$_printf_percent$$00000007) for _printf_ll
    _printf_lld.o(.ARM.Collect$$_printf_percent$$0000000E) refers (Weak) to _printf_longlong_dec.o(.text) for _printf_longlong_dec
    rt_memcpy_v6.o(.text) refers to rt_memcpy_w.o(.text) for __aeabi_memcpy4
    aeabi_memset.o(.text) refers to rt_memclr.o(.text) for _memset
    rt_memclr.o(.text) refers to rt_memclr_w.o(.text) for _memset_w
    __main.o(!!!main) refers to __rtentry.o(.ARM.Collect$$rtentry$$00000000) for __rt_entry
    dfixu.o(x$fpl$dfixu) refers (Special) to usenofp.o(x$fpl$usenofp) for __I$use$fp
    dfixu.o(x$fpl$dfixu) refers to dnaninf.o(x$fpl$dnaninf) for __fpl_dnaninf
    dfixu.o(x$fpl$dfixur) refers (Special) to usenofp.o(x$fpl$usenofp) for __I$use$fp
    dfixu.o(x$fpl$dfixur) refers to dnaninf.o(x$fpl$dnaninf) for __fpl_dnaninf
    dflt_clz.o(x$fpl$dfltu) refers (Special) to usenofp.o(x$fpl$usenofp) for __I$use$fp
    dflt_clz.o(x$fpl$dflt) refers (Special) to usenofp.o(x$fpl$usenofp) for __I$use$fp
    dflt_clz.o(x$fpl$dfltn) refers (Special) to usenofp.o(x$fpl$usenofp) for __I$use$fp
    dmul.o(x$fpl$dmul) refers (Special) to usenofp.o(x$fpl$usenofp) for __I$use$fp
    dmul.o(x$fpl$dmul) refers to dretinf.o(x$fpl$dretinf) for __fpl_dretinf
    dmul.o(x$fpl$dmul) refers to dnaninf.o(x$fpl$dnaninf) for __fpl_dnaninf
    __rtentry.o(.ARM.Collect$$rtentry$$00000000) refers (Special) to __rtentry2.o(.ARM.Collect$$rtentry$$0000000A) for __rt_entry_li
    __rtentry.o(.ARM.Collect$$rtentry$$00000000) refers (Special) to __rtentry2.o(.ARM.Collect$$rtentry$$0000000D) for __rt_entry_main
    __rtentry.o(.ARM.Collect$$rtentry$$00000000) refers (Special) to __rtentry2.o(.ARM.Collect$$rtentry$$0000000C) for __rt_entry_postli_1
    __rtentry.o(.ARM.Collect$$rtentry$$00000000) refers (Special) to __rtentry2.o(.ARM.Collect$$rtentry$$00000009) for __rt_entry_postsh_1
    __rtentry.o(.ARM.Collect$$rtentry$$00000000) refers (Special) to __rtentry2.o(.ARM.Collect$$rtentry$$00000002) for __rt_entry_presh_1
    __rtentry.o(.ARM.Collect$$rtentry$$00000000) refers (Special) to __rtentry4.o(.ARM.Collect$$rtentry$$00000004) for __rt_entry_sh
    aeabi_ldiv0_sigfpe.o(.text) refers to rt_div0.o(.text) for __rt_div0
    _printf_intcommon.o(.text) refers (Weak) to _printf_pad.o(.text) for _printf_pre_padding
    _printf_intcommon.o(.text) refers (Weak) to _printf_pad.o(.text) for _printf_pre_padding
    _printf_intcommon.o(.text) refers (Weak) to _printf_pad.o(.text) for _printf_post_padding
    _printf_char.o(.text) refers (Weak) to _printf_str.o(.text) for _printf_str
    _printf_char_file.o(.text) refers to _printf_char_common.o(.text) for _printf_char_common
    _printf_char_file.o(.text) refers to ferror.o(.text) for ferror
    _printf_char_file.o(.text) refers to usart.o(i.fputc) for fputc
    dnaninf.o(x$fpl$dnaninf) refers (Special) to usenofp.o(x$fpl$usenofp) for __I$use$fp
    dretinf.o(x$fpl$dretinf) refers (Special) to usenofp.o(x$fpl$usenofp) for __I$use$fp
    __rtentry2.o(.ARM.Collect$$rtentry$$00000008) refers to boardinit2.o(.text) for _platform_post_stackheap_init
    __rtentry2.o(.ARM.Collect$$rtentry$$0000000A) refers to libinit.o(.ARM.Collect$$libinit$$00000000) for __rt_lib_init
    __rtentry2.o(.ARM.Collect$$rtentry$$0000000B) refers to boardinit3.o(.text) for _platform_post_lib_init
    __rtentry2.o(.ARM.Collect$$rtentry$$0000000D) refers to main.o(i.main) for main
    __rtentry2.o(.ARM.Collect$$rtentry$$0000000D) refers to exit.o(.text) for exit
    __rtentry2.o(.ARM.exidx) refers to __rtentry2.o(.ARM.Collect$$rtentry$$00000001) for .ARM.Collect$$rtentry$$00000001
    __rtentry2.o(.ARM.exidx) refers to __rtentry2.o(.ARM.Collect$$rtentry$$00000008) for .ARM.Collect$$rtentry$$00000008
    __rtentry2.o(.ARM.exidx) refers to __rtentry2.o(.ARM.Collect$$rtentry$$0000000A) for .ARM.Collect$$rtentry$$0000000A
    __rtentry2.o(.ARM.exidx) refers to __rtentry2.o(.ARM.Collect$$rtentry$$0000000B) for .ARM.Collect$$rtentry$$0000000B
    __rtentry2.o(.ARM.exidx) refers to __rtentry2.o(.ARM.Collect$$rtentry$$0000000D) for .ARM.Collect$$rtentry$$0000000D
    __rtentry4.o(.ARM.Collect$$rtentry$$00000004) refers to sys_stackheap_outer.o(.text) for __user_setup_stackheap
    __rtentry4.o(.ARM.exidx) refers to __rtentry4.o(.ARM.Collect$$rtentry$$00000004) for .ARM.Collect$$rtentry$$00000004
    rt_div0.o(.text) refers to defsig_fpe_outer.o(.text) for __rt_SIGFPE
    _printf_char_common.o(.text) refers to __printf_flags_ss_wp.o(.text) for __printf
    sys_stackheap_outer.o(.text) refers to libspace.o(.text) for __user_perproc_libspace
    sys_stackheap_outer.o(.text) refers to startup_stm32f103xe.o(.text) for __user_initial_stackheap
    exit.o(.text) refers to rtexit.o(.ARM.Collect$$rtexit$$00000000) for __rt_exit
    defsig_fpe_outer.o(.text) refers to defsig_fpe_inner.o(.text) for __rt_SIGFPE_inner
    defsig_fpe_outer.o(.text) refers to defsig_exit.o(.text) for __sig_exit
    defsig_fpe_formal.o(.text) refers to rt_raise.o(.text) for __rt_raise
    libinit.o(.ARM.Collect$$libinit$$00000000) refers (Special) to libinit2.o(.ARM.Collect$$libinit$$0000002E) for __rt_lib_init_alloca_1
    libinit.o(.ARM.Collect$$libinit$$00000000) refers (Special) to libinit2.o(.ARM.Collect$$libinit$$0000002C) for __rt_lib_init_argv_1
    libinit.o(.ARM.Collect$$libinit$$00000000) refers (Special) to libinit2.o(.ARM.Collect$$libinit$$0000001B) for __rt_lib_init_atexit_1
    libinit.o(.ARM.Collect$$libinit$$00000000) refers (Special) to libinit2.o(.ARM.Collect$$libinit$$00000021) for __rt_lib_init_clock_1
    libinit.o(.ARM.Collect$$libinit$$00000000) refers (Special) to libinit2.o(.ARM.Collect$$libinit$$00000032) for __rt_lib_init_cpp_1
    libinit.o(.ARM.Collect$$libinit$$00000000) refers (Special) to libinit2.o(.ARM.Collect$$libinit$$00000030) for __rt_lib_init_exceptions_1
    libinit.o(.ARM.Collect$$libinit$$00000000) refers (Special) to libinit2.o(.ARM.Collect$$libinit$$00000002) for __rt_lib_init_fp_1
    libinit.o(.ARM.Collect$$libinit$$00000000) refers (Special) to libinit2.o(.ARM.Collect$$libinit$$0000001F) for __rt_lib_init_fp_trap_1
    libinit.o(.ARM.Collect$$libinit$$00000000) refers (Special) to libinit2.o(.ARM.Collect$$libinit$$00000023) for __rt_lib_init_getenv_1
    libinit.o(.ARM.Collect$$libinit$$00000000) refers (Special) to libinit2.o(.ARM.Collect$$libinit$$0000000A) for __rt_lib_init_heap_1
    libinit.o(.ARM.Collect$$libinit$$00000000) refers (Special) to libinit2.o(.ARM.Collect$$libinit$$00000011) for __rt_lib_init_lc_collate_1
    libinit.o(.ARM.Collect$$libinit$$00000000) refers (Special) to libinit2.o(.ARM.Collect$$libinit$$00000013) for __rt_lib_init_lc_ctype_1
    libinit.o(.ARM.Collect$$libinit$$00000000) refers (Special) to libinit2.o(.ARM.Collect$$libinit$$00000015) for __rt_lib_init_lc_monetary_1
    libinit.o(.ARM.Collect$$libinit$$00000000) refers (Special) to libinit2.o(.ARM.Collect$$libinit$$00000017) for __rt_lib_init_lc_numeric_1
    libinit.o(.ARM.Collect$$libinit$$00000000) refers (Special) to libinit2.o(.ARM.Collect$$libinit$$00000019) for __rt_lib_init_lc_time_1
    libinit.o(.ARM.Collect$$libinit$$00000000) refers (Special) to libinit2.o(.ARM.Collect$$libinit$$00000004) for __rt_lib_init_preinit_1
    libinit.o(.ARM.Collect$$libinit$$00000000) refers (Special) to libinit2.o(.ARM.Collect$$libinit$$0000000E) for __rt_lib_init_rand_1
    libinit.o(.ARM.Collect$$libinit$$00000000) refers (Special) to libinit2.o(.ARM.Collect$$libinit$$00000033) for __rt_lib_init_return
    libinit.o(.ARM.Collect$$libinit$$00000000) refers (Special) to libinit2.o(.ARM.Collect$$libinit$$0000001D) for __rt_lib_init_signal_1
    libinit.o(.ARM.Collect$$libinit$$00000000) refers (Special) to libinit2.o(.ARM.Collect$$libinit$$00000025) for __rt_lib_init_stdio_1
    libinit.o(.ARM.Collect$$libinit$$00000000) refers (Special) to libinit2.o(.ARM.Collect$$libinit$$0000000C) for __rt_lib_init_user_alloc_1
    libspace.o(.text) refers to libspace.o(.bss) for __libspace_start
    rtexit.o(.ARM.Collect$$rtexit$$00000000) refers (Special) to rtexit2.o(.ARM.Collect$$rtexit$$00000004) for __rt_exit_exit
    rtexit.o(.ARM.Collect$$rtexit$$00000000) refers (Special) to rtexit2.o(.ARM.Collect$$rtexit$$00000003) for __rt_exit_ls
    rtexit.o(.ARM.Collect$$rtexit$$00000000) refers (Special) to rtexit2.o(.ARM.Collect$$rtexit$$00000002) for __rt_exit_prels_1
    rtexit.o(.ARM.exidx) refers (Special) to rtexit2.o(.ARM.Collect$$rtexit$$00000004) for __rt_exit_exit
    rtexit.o(.ARM.exidx) refers (Special) to rtexit2.o(.ARM.Collect$$rtexit$$00000003) for __rt_exit_ls
    rtexit.o(.ARM.exidx) refers (Special) to rtexit2.o(.ARM.Collect$$rtexit$$00000002) for __rt_exit_prels_1
    rtexit.o(.ARM.exidx) refers to rtexit.o(.ARM.Collect$$rtexit$$00000000) for .ARM.Collect$$rtexit$$00000000
    rt_raise.o(.text) refers to __raise.o(.text) for __raise
    rt_raise.o(.text) refers to usart.o(i._sys_exit) for _sys_exit
    defsig_exit.o(.text) refers to usart.o(i._sys_exit) for _sys_exit
    defsig_fpe_inner.o(.text) refers to defsig_general.o(.text) for __default_signal_display
    libinit2.o(.ARM.Collect$$libinit$$00000010) refers to libinit2.o(.ARM.Collect$$libinit$$0000000F) for .ARM.Collect$$libinit$$0000000F
    libinit2.o(.ARM.Collect$$libinit$$00000012) refers to libinit2.o(.ARM.Collect$$libinit$$0000000F) for .ARM.Collect$$libinit$$0000000F
    libinit2.o(.ARM.Collect$$libinit$$00000014) refers to libinit2.o(.ARM.Collect$$libinit$$0000000F) for .ARM.Collect$$libinit$$0000000F
    libinit2.o(.ARM.Collect$$libinit$$00000016) refers to libinit2.o(.ARM.Collect$$libinit$$0000000F) for .ARM.Collect$$libinit$$0000000F
    libinit2.o(.ARM.Collect$$libinit$$00000018) refers to libinit2.o(.ARM.Collect$$libinit$$0000000F) for .ARM.Collect$$libinit$$0000000F
    libinit2.o(.ARM.Collect$$libinit$$00000026) refers to argv_veneer.o(.emb_text) for __ARM_argv_veneer
    libinit2.o(.ARM.Collect$$libinit$$00000027) refers to argv_veneer.o(.emb_text) for __ARM_argv_veneer
    rtexit2.o(.ARM.Collect$$rtexit$$00000003) refers to libshutdown.o(.ARM.Collect$$libshutdown$$00000000) for __rt_lib_shutdown
    rtexit2.o(.ARM.Collect$$rtexit$$00000004) refers to usart.o(i._sys_exit) for _sys_exit
    rtexit2.o(.ARM.exidx) refers to rtexit2.o(.ARM.Collect$$rtexit$$00000001) for .ARM.Collect$$rtexit$$00000001
    rtexit2.o(.ARM.exidx) refers to rtexit2.o(.ARM.Collect$$rtexit$$00000003) for .ARM.Collect$$rtexit$$00000003
    rtexit2.o(.ARM.exidx) refers to rtexit2.o(.ARM.Collect$$rtexit$$00000004) for .ARM.Collect$$rtexit$$00000004
    __raise.o(.text) refers to defsig.o(CL$$defsig) for __default_signal_handler
    defsig_general.o(.text) refers to usart.o(i._ttywrch) for _ttywrch
    argv_veneer.o(.emb_text) refers to no_argv.o(.text) for __ARM_get_argv
    defsig.o(CL$$defsig) refers to defsig_fpe_inner.o(.text) for __rt_SIGFPE_inner
    defsig.o(CL$$defsig) refers to defsig_rtmem_inner.o(.text) for __rt_SIGRTMEM_inner
    _get_argv_nomalloc.o(.text) refers (Special) to hrguard.o(.text) for __heap_region$guard
    _get_argv_nomalloc.o(.text) refers to defsig_rtmem_outer.o(.text) for __rt_SIGRTMEM
    _get_argv_nomalloc.o(.text) refers to usart.o(i._sys_command_string) for _sys_command_string
    libshutdown.o(.ARM.Collect$$libshutdown$$00000000) refers (Special) to libshutdown2.o(.ARM.Collect$$libshutdown$$00000004) for __rt_lib_shutdown_cpp_1
    libshutdown.o(.ARM.Collect$$libshutdown$$00000000) refers (Special) to libshutdown2.o(.ARM.Collect$$libshutdown$$00000002) for __rt_lib_shutdown_fini_1
    libshutdown.o(.ARM.Collect$$libshutdown$$00000000) refers (Special) to libshutdown2.o(.ARM.Collect$$libshutdown$$00000009) for __rt_lib_shutdown_fp_trap_1
    libshutdown.o(.ARM.Collect$$libshutdown$$00000000) refers (Special) to libshutdown2.o(.ARM.Collect$$libshutdown$$00000011) for __rt_lib_shutdown_heap_1
    libshutdown.o(.ARM.Collect$$libshutdown$$00000000) refers (Special) to libshutdown2.o(.ARM.Collect$$libshutdown$$00000012) for __rt_lib_shutdown_return
    libshutdown.o(.ARM.Collect$$libshutdown$$00000000) refers (Special) to libshutdown2.o(.ARM.Collect$$libshutdown$$0000000C) for __rt_lib_shutdown_signal_1
    libshutdown.o(.ARM.Collect$$libshutdown$$00000000) refers (Special) to libshutdown2.o(.ARM.Collect$$libshutdown$$00000006) for __rt_lib_shutdown_stdio_1
    libshutdown.o(.ARM.Collect$$libshutdown$$00000000) refers (Special) to libshutdown2.o(.ARM.Collect$$libshutdown$$0000000E) for __rt_lib_shutdown_user_alloc_1
    defsig_abrt_inner.o(.text) refers to defsig_general.o(.text) for __default_signal_display
    defsig_rtred_inner.o(.text) refers to defsig_general.o(.text) for __default_signal_display
    defsig_rtmem_inner.o(.text) refers to defsig_general.o(.text) for __default_signal_display
    defsig_rtmem_outer.o(.text) refers to defsig_rtmem_inner.o(.text) for __rt_SIGRTMEM_inner
    defsig_rtmem_outer.o(.text) refers to defsig_exit.o(.text) for __sig_exit
    defsig_rtmem_formal.o(.text) refers to rt_raise.o(.text) for __rt_raise
    defsig_stak_inner.o(.text) refers to defsig_general.o(.text) for __default_signal_display
    defsig_pvfn_inner.o(.text) refers to defsig_general.o(.text) for __default_signal_display
    defsig_cppl_inner.o(.text) refers to defsig_general.o(.text) for __default_signal_display
    defsig_segv_inner.o(.text) refers to defsig_general.o(.text) for __default_signal_display
    defsig_other.o(.text) refers to defsig_general.o(.text) for __default_signal_display


==============================================================================

Removing Unused input sections from the image.

    Removing main.o(.rev16_text), (4 bytes).
    Removing main.o(.revsh_text), (4 bytes).
    Removing main.o(.rrx_text), (6 bytes).
    Removing delay.o(.rev16_text), (4 bytes).
    Removing delay.o(.revsh_text), (4 bytes).
    Removing delay.o(.rrx_text), (6 bytes).
    Removing sys.o(.rev16_text), (4 bytes).
    Removing sys.o(.revsh_text), (4 bytes).
    Removing sys.o(.rrx_text), (6 bytes).
    Removing sys.o(i.sys_gpio_pin_get), (16 bytes).
    Removing sys.o(i.sys_gpio_remap_set), (76 bytes).
    Removing sys.o(i.sys_msr_msp), (10 bytes).
    Removing sys.o(i.sys_nvic_ex_config), (288 bytes).
    Removing sys.o(i.sys_soft_reset), (16 bytes).
    Removing sys.o(i.sys_standby), (76 bytes).
    Removing sys.o(i.sys_wfi_set), (4 bytes).
    Removing usart.o(.rev16_text), (4 bytes).
    Removing usart.o(.revsh_text), (4 bytes).
    Removing usart.o(.rrx_text), (6 bytes).
    Removing usart.o(i._sys_command_string), (6 bytes).
    Removing usart.o(i._ttywrch), (4 bytes).
    Removing led.o(.rev16_text), (4 bytes).
    Removing led.o(.revsh_text), (4 bytes).
    Removing led.o(.rrx_text), (6 bytes).
    Removing lcd.o(.rev16_text), (4 bytes).
    Removing lcd.o(.revsh_text), (4 bytes).
    Removing lcd.o(.rrx_text), (6 bytes).
    Removing lcd.o(i.lcd_color_fill), (96 bytes).
    Removing lcd.o(i.lcd_display_off), (36 bytes).
    Removing lcd.o(i.lcd_display_on), (36 bytes).
    Removing lcd.o(i.lcd_draw_circle), (170 bytes).
    Removing lcd.o(i.lcd_draw_hline), (56 bytes).
    Removing lcd.o(i.lcd_draw_line), (172 bytes).
    Removing lcd.o(i.lcd_draw_rectangle), (74 bytes).
    Removing lcd.o(i.lcd_fill_circle), (176 bytes).
    Removing lcd.o(i.lcd_read_point), (152 bytes).
    Removing lcd.o(i.lcd_set_window), (368 bytes).
    Removing lcd.o(i.lcd_show_xnum), (198 bytes).
    Removing key.o(.rev16_text), (4 bytes).
    Removing key.o(.revsh_text), (4 bytes).
    Removing key.o(.rrx_text), (6 bytes).
    Removing key.o(i.key_scan), (196 bytes).
    Removing key.o(.data), (1 bytes).
    Removing sram.o(.rev16_text), (4 bytes).
    Removing sram.o(.revsh_text), (4 bytes).
    Removing sram.o(.rrx_text), (6 bytes).
    Removing sram.o(i.sram_read), (22 bytes).
    Removing sram.o(i.sram_test_read), (20 bytes).
    Removing sram.o(i.sram_test_write), (16 bytes).
    Removing sram.o(i.sram_write), (24 bytes).
    Removing sdio_sdcard.o(.rev16_text), (4 bytes).
    Removing sdio_sdcard.o(.revsh_text), (4 bytes).
    Removing sdio_sdcard.o(.rrx_text), (6 bytes).
    Removing sdio_sdcard.o(i.sdmmc_get_status), (26 bytes).
    Removing sdio_sdcard.o(i.sdmmc_send_status), (60 bytes).
    Removing spi.o(.rev16_text), (4 bytes).
    Removing spi.o(.revsh_text), (4 bytes).
    Removing spi.o(.rrx_text), (6 bytes).
    Removing norflash.o(.rev16_text), (4 bytes).
    Removing norflash.o(.revsh_text), (4 bytes).
    Removing norflash.o(.rrx_text), (6 bytes).
    Removing norflash.o(i.norflash_erase_chip), (48 bytes).
    Removing malloc.o(.rev16_text), (4 bytes).
    Removing malloc.o(.revsh_text), (4 bytes).
    Removing malloc.o(.rrx_text), (6 bytes).
    Removing malloc.o(i.my_mem_copy), (26 bytes).
    Removing malloc.o(i.myrealloc), (68 bytes).
    Removing diskio.o(.rev16_text), (4 bytes).
    Removing diskio.o(.revsh_text), (4 bytes).
    Removing diskio.o(.rrx_text), (6 bytes).
    Removing ff.o(i.f_printf), (692 bytes).
    Removing ff.o(i.f_stat), (96 bytes).
    Removing ff.o(i.f_truncate), (214 bytes).
    Removing ffsystem.o(.rev16_text), (4 bytes).
    Removing ffsystem.o(.revsh_text), (4 bytes).
    Removing ffsystem.o(.rrx_text), (6 bytes).
    Removing exfuns.o(.rev16_text), (4 bytes).
    Removing exfuns.o(.revsh_text), (4 bytes).
    Removing exfuns.o(.rrx_text), (6 bytes).
    Removing exfuns.o(i.exfuns_char_upper), (26 bytes).
    Removing exfuns.o(i.exfuns_file_copy), (396 bytes).
    Removing exfuns.o(i.exfuns_file_type), (192 bytes).
    Removing exfuns.o(i.exfuns_folder_copy), (480 bytes).
    Removing exfuns.o(i.exfuns_get_folder_size), (232 bytes).
    Removing exfuns.o(i.exfuns_get_src_dname), (46 bytes).
    Removing exfuns.o(.constdata), (196 bytes).
    Removing exfuns.o(.conststring), (84 bytes).
    Removing fattester.o(.rev16_text), (4 bytes).
    Removing fattester.o(.revsh_text), (4 bytes).
    Removing fattester.o(.rrx_text), (6 bytes).
    Removing usmart.o(.rev16_text), (4 bytes).
    Removing usmart.o(.revsh_text), (4 bytes).
    Removing usmart.o(.rrx_text), (6 bytes).
    Removing usmart_config.o(.rev16_text), (4 bytes).
    Removing usmart_config.o(.revsh_text), (4 bytes).
    Removing usmart_config.o(.rrx_text), (6 bytes).
    Removing usmart_port.o(.rev16_text), (4 bytes).
    Removing usmart_port.o(.revsh_text), (4 bytes).
    Removing usmart_port.o(.rrx_text), (6 bytes).
    Removing usmart_str.o(.rev16_text), (4 bytes).
    Removing usmart_str.o(.revsh_text), (4 bytes).
    Removing usmart_str.o(.rrx_text), (6 bytes).

102 unused section(s) (total 5471 bytes) removed from the image.

==============================================================================

Image Symbol Table

    Local Symbols

    Symbol Name                              Value     Ov Type        Size  Object(Section)

    ../clib/angel/boardlib.s                 0x00000000   Number         0  boardshut.o ABSOLUTE
    ../clib/angel/boardlib.s                 0x00000000   Number         0  boardinit1.o ABSOLUTE
    ../clib/angel/boardlib.s                 0x00000000   Number         0  boardinit2.o ABSOLUTE
    ../clib/angel/boardlib.s                 0x00000000   Number         0  boardinit3.o ABSOLUTE
    ../clib/angel/dczerorl2.s                0x00000000   Number         0  __dczerorl2.o ABSOLUTE
    ../clib/angel/handlers.s                 0x00000000   Number         0  __scatter_zi.o ABSOLUTE
    ../clib/angel/kernel.s                   0x00000000   Number         0  rtexit.o ABSOLUTE
    ../clib/angel/kernel.s                   0x00000000   Number         0  __rtentry.o ABSOLUTE
    ../clib/angel/kernel.s                   0x00000000   Number         0  rtexit2.o ABSOLUTE
    ../clib/angel/kernel.s                   0x00000000   Number         0  __rtentry2.o ABSOLUTE
    ../clib/angel/kernel.s                   0x00000000   Number         0  __rtentry4.o ABSOLUTE
    ../clib/angel/rt.s                       0x00000000   Number         0  rt_raise.o ABSOLUTE
    ../clib/angel/rt.s                       0x00000000   Number         0  aeabi_ldiv0.o ABSOLUTE
    ../clib/angel/rt.s                       0x00000000   Number         0  aeabi_ldiv0_sigfpe.o ABSOLUTE
    ../clib/angel/rt.s                       0x00000000   Number         0  rt_div0.o ABSOLUTE
    ../clib/angel/scatter.s                  0x00000000   Number         0  __scatter.o ABSOLUTE
    ../clib/angel/startup.s                  0x00000000   Number         0  __main.o ABSOLUTE
    ../clib/angel/sys.s                      0x00000000   Number         0  sys_stackheap_outer.o ABSOLUTE
    ../clib/angel/sys.s                      0x00000000   Number         0  use_no_semi_2.o ABSOLUTE
    ../clib/angel/sys.s                      0x00000000   Number         0  use_no_semi.o ABSOLUTE
    ../clib/angel/sys.s                      0x00000000   Number         0  libspace.o ABSOLUTE
    ../clib/armsys.c                         0x00000000   Number         0  _get_argv_nomalloc.o ABSOLUTE
    ../clib/armsys.c                         0x00000000   Number         0  argv_veneer.o ABSOLUTE
    ../clib/armsys.c                         0x00000000   Number         0  argv_veneer.o ABSOLUTE
    ../clib/armsys.c                         0x00000000   Number         0  no_argv.o ABSOLUTE
    ../clib/heapalloc.c                      0x00000000   Number         0  hrguard.o ABSOLUTE
    ../clib/heapaux.c                        0x00000000   Number         0  heapauxi.o ABSOLUTE
    ../clib/libinit.s                        0x00000000   Number         0  libshutdown2.o ABSOLUTE
    ../clib/libinit.s                        0x00000000   Number         0  libshutdown.o ABSOLUTE
    ../clib/libinit.s                        0x00000000   Number         0  libinit.o ABSOLUTE
    ../clib/libinit.s                        0x00000000   Number         0  libinit2.o ABSOLUTE
    ../clib/longlong.s                       0x00000000   Number         0  lludivv7m.o ABSOLUTE
    ../clib/longlong.s                       0x00000000   Number         0  lludiv10.o ABSOLUTE
    ../clib/longlong.s                       0x00000000   Number         0  llsdiv.o ABSOLUTE
    ../clib/memcpset.s                       0x00000000   Number         0  rt_memcpy_w.o ABSOLUTE
    ../clib/memcpset.s                       0x00000000   Number         0  rt_memcpy_v6.o ABSOLUTE
    ../clib/memcpset.s                       0x00000000   Number         0  aeabi_memset.o ABSOLUTE
    ../clib/memcpset.s                       0x00000000   Number         0  strcmpv7m.o ABSOLUTE
    ../clib/memcpset.s                       0x00000000   Number         0  rt_memclr.o ABSOLUTE
    ../clib/memcpset.s                       0x00000000   Number         0  rt_memclr_w.o ABSOLUTE
    ../clib/misc.s                           0x00000000   Number         0  printf_stubs.o ABSOLUTE
    ../clib/printf.c                         0x00000000   Number         0  _printf_char_common.o ABSOLUTE
    ../clib/printf.c                         0x00000000   Number         0  _printf_char_file.o ABSOLUTE
    ../clib/printf.c                         0x00000000   Number         0  _printf_char.o ABSOLUTE
    ../clib/printf.c                         0x00000000   Number         0  _printf_intcommon.o ABSOLUTE
    ../clib/printf.c                         0x00000000   Number         0  __2printf.o ABSOLUTE
    ../clib/printf.c                         0x00000000   Number         0  noretval__2printf.o ABSOLUTE
    ../clib/printf.c                         0x00000000   Number         0  __printf.o ABSOLUTE
    ../clib/printf.c                         0x00000000   Number         0  _printf_pad.o ABSOLUTE
    ../clib/printf.c                         0x00000000   Number         0  _printf_str.o ABSOLUTE
    ../clib/printf.c                         0x00000000   Number         0  __printf_flags_ss.o ABSOLUTE
    ../clib/printf.c                         0x00000000   Number         0  _printf_longlong_dec.o ABSOLUTE
    ../clib/printf.c                         0x00000000   Number         0  _printf_hex_ll.o ABSOLUTE
    ../clib/printf.c                         0x00000000   Number         0  _printf_hex_int.o ABSOLUTE
    ../clib/printf.c                         0x00000000   Number         0  _printf_hex_int_ll.o ABSOLUTE
    ../clib/printf.c                         0x00000000   Number         0  _printf_hex_ptr.o ABSOLUTE
    ../clib/printf.c                         0x00000000   Number         0  _printf_hex_int_ptr.o ABSOLUTE
    ../clib/printf.c                         0x00000000   Number         0  _printf_dec.o ABSOLUTE
    ../clib/printf.c                         0x00000000   Number         0  _printf_hex_ll_ptr.o ABSOLUTE
    ../clib/printf.c                         0x00000000   Number         0  _printf_hex_int_ll_ptr.o ABSOLUTE
    ../clib/printf.c                         0x00000000   Number         0  __printf_nopercent.o ABSOLUTE
    ../clib/printf.c                         0x00000000   Number         0  __printf_flags.o ABSOLUTE
    ../clib/printf.c                         0x00000000   Number         0  __printf_flags_ss_wp.o ABSOLUTE
    ../clib/printf.c                         0x00000000   Number         0  __printf_ss_wp.o ABSOLUTE
    ../clib/printf.c                         0x00000000   Number         0  __printf_flags_wp.o ABSOLUTE
    ../clib/printf.c                         0x00000000   Number         0  __printf_ss.o ABSOLUTE
    ../clib/printf.c                         0x00000000   Number         0  __printf_wp.o ABSOLUTE
    ../clib/printf_percent.s                 0x00000000   Number         0  _printf_d.o ABSOLUTE
    ../clib/printf_percent.s                 0x00000000   Number         0  _printf_c.o ABSOLUTE
    ../clib/printf_percent.s                 0x00000000   Number         0  _printf_x.o ABSOLUTE
    ../clib/printf_percent.s                 0x00000000   Number         0  _printf_s.o ABSOLUTE
    ../clib/printf_percent.s                 0x00000000   Number         0  _printf_u.o ABSOLUTE
    ../clib/printf_percent.s                 0x00000000   Number         0  _printf_percent_end.o ABSOLUTE
    ../clib/printf_percent.s                 0x00000000   Number         0  _printf_percent.o ABSOLUTE
    ../clib/printf_percent.s                 0x00000000   Number         0  _printf_lld.o ABSOLUTE
    ../clib/printf_percent.s                 0x00000000   Number         0  _printf_ll.o ABSOLUTE
    ../clib/signal.c                         0x00000000   Number         0  defsig_rtred_inner.o ABSOLUTE
    ../clib/signal.c                         0x00000000   Number         0  defsig_general.o ABSOLUTE
    ../clib/signal.c                         0x00000000   Number         0  __raise.o ABSOLUTE
    ../clib/signal.c                         0x00000000   Number         0  defsig_rtmem_inner.o ABSOLUTE
    ../clib/signal.c                         0x00000000   Number         0  defsig_fpe_inner.o ABSOLUTE
    ../clib/signal.c                         0x00000000   Number         0  defsig_rtmem_outer.o ABSOLUTE
    ../clib/signal.c                         0x00000000   Number         0  defsig_fpe_formal.o ABSOLUTE
    ../clib/signal.c                         0x00000000   Number         0  defsig_rtmem_formal.o ABSOLUTE
    ../clib/signal.c                         0x00000000   Number         0  defsig_exit.o ABSOLUTE
    ../clib/signal.c                         0x00000000   Number         0  defsig_stak_inner.o ABSOLUTE
    ../clib/signal.c                         0x00000000   Number         0  defsig_fpe_outer.o ABSOLUTE
    ../clib/signal.c                         0x00000000   Number         0  defsig_pvfn_inner.o ABSOLUTE
    ../clib/signal.c                         0x00000000   Number         0  defsig_cppl_inner.o ABSOLUTE
    ../clib/signal.c                         0x00000000   Number         0  defsig_segv_inner.o ABSOLUTE
    ../clib/signal.c                         0x00000000   Number         0  defsig_other.o ABSOLUTE
    ../clib/signal.c                         0x00000000   Number         0  defsig_abrt_inner.o ABSOLUTE
    ../clib/signal.s                         0x00000000   Number         0  defsig.o ABSOLUTE
    ../clib/stdio.c                          0x00000000   Number         0  ferror.o ABSOLUTE
    ../clib/stdio.c                          0x00000000   Number         0  ferror_locked.o ABSOLUTE
    ../clib/stdlib.c                         0x00000000   Number         0  exit.o ABSOLUTE
    ../clib/string.c                         0x00000000   Number         0  strlen.o ABSOLUTE
    ../clib/string.c                         0x00000000   Number         0  strcpy.o ABSOLUTE
    ../clib/string.c                         0x00000000   Number         0  memcmp.o ABSOLUTE
    ../clib/string.c                         0x00000000   Number         0  strchr.o ABSOLUTE
    ../clib/string.c                         0x00000000   Number         0  strcat.o ABSOLUTE
    ../fplib/dfixu.s                         0x00000000   Number         0  dfixu.o ABSOLUTE
    ../fplib/dflt.s                          0x00000000   Number         0  dflt_clz.o ABSOLUTE
    ../fplib/dmul.s                          0x00000000   Number         0  dmul.o ABSOLUTE
    ../fplib/dnaninf.s                       0x00000000   Number         0  dnaninf.o ABSOLUTE
    ../fplib/dretinf.s                       0x00000000   Number         0  dretinf.o ABSOLUTE
    ../fplib/fpinit.s                        0x00000000   Number         0  fpinit.o ABSOLUTE
    ../fplib/usenofp.s                       0x00000000   Number         0  usenofp.o ABSOLUTE
    ..\..\Drivers\BSP\KEY\key.c              0x00000000   Number         0  key.o ABSOLUTE
    ..\..\Drivers\BSP\LCD\lcd.c              0x00000000   Number         0  lcd.o ABSOLUTE
    ..\..\Drivers\BSP\LED\led.c              0x00000000   Number         0  led.o ABSOLUTE
    ..\..\Drivers\BSP\NORFLASH\norflash.c    0x00000000   Number         0  norflash.o ABSOLUTE
    ..\..\Drivers\BSP\SDIO\sdio_sdcard.c     0x00000000   Number         0  sdio_sdcard.o ABSOLUTE
    ..\..\Drivers\BSP\SPI\spi.c              0x00000000   Number         0  spi.o ABSOLUTE
    ..\..\Drivers\BSP\SRAM\sram.c            0x00000000   Number         0  sram.o ABSOLUTE
    ..\..\Drivers\CMSIS\Device\ST\STM32F1xx\Source\Templates\arm\startup_stm32f103xe.s 0x00000000   Number         0  startup_stm32f103xe.o ABSOLUTE
    ..\..\Drivers\SYSTEM\delay\delay.c       0x00000000   Number         0  delay.o ABSOLUTE
    ..\..\Drivers\SYSTEM\sys\sys.c           0x00000000   Number         0  sys.o ABSOLUTE
    ..\..\Drivers\SYSTEM\usart\usart.c       0x00000000   Number         0  usart.o ABSOLUTE
    ..\..\Middlewares\FATFS\exfuns\exfuns.c  0x00000000   Number         0  exfuns.o ABSOLUTE
    ..\..\Middlewares\FATFS\exfuns\fattester.c 0x00000000   Number         0  fattester.o ABSOLUTE
    ..\..\Middlewares\FATFS\source\diskio.c  0x00000000   Number         0  diskio.o ABSOLUTE
    ..\..\Middlewares\FATFS\source\ff.c      0x00000000   Number         0  ff.o ABSOLUTE
    ..\..\Middlewares\FATFS\source\ffsystem.c 0x00000000   Number         0  ffsystem.o ABSOLUTE
    ..\..\Middlewares\FATFS\source\ffunicode.c 0x00000000   Number         0  ffunicode.o ABSOLUTE
    ..\..\Middlewares\MALLOC\malloc.c        0x00000000   Number         0  malloc.o ABSOLUTE
    ..\..\Middlewares\USMART\usmart.c        0x00000000   Number         0  usmart.o ABSOLUTE
    ..\..\Middlewares\USMART\usmart_config.c 0x00000000   Number         0  usmart_config.o ABSOLUTE
    ..\..\Middlewares\USMART\usmart_port.c   0x00000000   Number         0  usmart_port.o ABSOLUTE
    ..\..\Middlewares\USMART\usmart_str.c    0x00000000   Number         0  usmart_str.o ABSOLUTE
    ..\..\User\main.c                        0x00000000   Number         0  main.o ABSOLUTE
    ..\\..\\Drivers\\BSP\\KEY\\key.c         0x00000000   Number         0  key.o ABSOLUTE
    ..\\..\\Drivers\\BSP\\LCD\\lcd.c         0x00000000   Number         0  lcd.o ABSOLUTE
    ..\\..\\Drivers\\BSP\\LED\\led.c         0x00000000   Number         0  led.o ABSOLUTE
    ..\\..\\Drivers\\BSP\\NORFLASH\\norflash.c 0x00000000   Number         0  norflash.o ABSOLUTE
    ..\\..\\Drivers\\BSP\\SDIO\\sdio_sdcard.c 0x00000000   Number         0  sdio_sdcard.o ABSOLUTE
    ..\\..\\Drivers\\BSP\\SPI\\spi.c         0x00000000   Number         0  spi.o ABSOLUTE
    ..\\..\\Drivers\\BSP\\SRAM\\sram.c       0x00000000   Number         0  sram.o ABSOLUTE
    ..\\..\\Drivers\\SYSTEM\\delay\\delay.c  0x00000000   Number         0  delay.o ABSOLUTE
    ..\\..\\Drivers\\SYSTEM\\sys\\sys.c      0x00000000   Number         0  sys.o ABSOLUTE
    ..\\..\\Drivers\\SYSTEM\\usart\\usart.c  0x00000000   Number         0  usart.o ABSOLUTE
    ..\\..\\Middlewares\\FATFS\\exfuns\\exfuns.c 0x00000000   Number         0  exfuns.o ABSOLUTE
    ..\\..\\Middlewares\\FATFS\\exfuns\\fattester.c 0x00000000   Number         0  fattester.o ABSOLUTE
    ..\\..\\Middlewares\\FATFS\\source\\diskio.c 0x00000000   Number         0  diskio.o ABSOLUTE
    ..\\..\\Middlewares\\FATFS\\source\\ffsystem.c 0x00000000   Number         0  ffsystem.o ABSOLUTE
    ..\\..\\Middlewares\\MALLOC\\malloc.c    0x00000000   Number         0  malloc.o ABSOLUTE
    ..\\..\\Middlewares\\USMART\\usmart.c    0x00000000   Number         0  usmart.o ABSOLUTE
    ..\\..\\Middlewares\\USMART\\usmart_config.c 0x00000000   Number         0  usmart_config.o ABSOLUTE
    ..\\..\\Middlewares\\USMART\\usmart_port.c 0x00000000   Number         0  usmart_port.o ABSOLUTE
    ..\\..\\Middlewares\\USMART\\usmart_str.c 0x00000000   Number         0  usmart_str.o ABSOLUTE
    ..\\..\\User\\main.c                     0x00000000   Number         0  main.o ABSOLUTE
    dc.s                                     0x00000000   Number         0  dc.o ABSOLUTE
    RESET                                    0x08000000   Section      304  startup_stm32f103xe.o(RESET)
    !!!main                                  0x08000130   Section        8  __main.o(!!!main)
    !!!scatter                               0x08000138   Section       52  __scatter.o(!!!scatter)
    !!dczerorl2                              0x0800016c   Section       90  __dczerorl2.o(!!dczerorl2)
    !!handler_zi                             0x080001c8   Section       28  __scatter_zi.o(!!handler_zi)
    .ARM.Collect$$_printf_percent$$00000000  0x080001e4   Section        0  _printf_percent.o(.ARM.Collect$$_printf_percent$$00000000)
    .ARM.Collect$$_printf_percent$$00000007  0x080001e4   Section       10  _printf_ll.o(.ARM.Collect$$_printf_percent$$00000007)
    .ARM.Collect$$_printf_percent$$00000009  0x080001ee   Section        6  _printf_d.o(.ARM.Collect$$_printf_percent$$00000009)
    .ARM.Collect$$_printf_percent$$0000000A  0x080001f4   Section        6  _printf_u.o(.ARM.Collect$$_printf_percent$$0000000A)
    .ARM.Collect$$_printf_percent$$0000000C  0x080001fa   Section        6  _printf_x.o(.ARM.Collect$$_printf_percent$$0000000C)
    .ARM.Collect$$_printf_percent$$0000000E  0x08000200   Section        6  _printf_lld.o(.ARM.Collect$$_printf_percent$$0000000E)
    .ARM.Collect$$_printf_percent$$00000013  0x08000206   Section        6  _printf_c.o(.ARM.Collect$$_printf_percent$$00000013)
    .ARM.Collect$$_printf_percent$$00000014  0x0800020c   Section        6  _printf_s.o(.ARM.Collect$$_printf_percent$$00000014)
    .ARM.Collect$$_printf_percent$$00000017  0x08000212   Section        4  _printf_percent_end.o(.ARM.Collect$$_printf_percent$$00000017)
    .ARM.Collect$$libinit$$00000000          0x08000216   Section        2  libinit.o(.ARM.Collect$$libinit$$00000000)
    .ARM.Collect$$libinit$$00000002          0x08000218   Section        0  libinit2.o(.ARM.Collect$$libinit$$00000002)
    .ARM.Collect$$libinit$$00000004          0x08000218   Section        0  libinit2.o(.ARM.Collect$$libinit$$00000004)
    .ARM.Collect$$libinit$$0000000A          0x08000218   Section        0  libinit2.o(.ARM.Collect$$libinit$$0000000A)
    .ARM.Collect$$libinit$$0000000C          0x08000218   Section        0  libinit2.o(.ARM.Collect$$libinit$$0000000C)
    .ARM.Collect$$libinit$$0000000E          0x08000218   Section        0  libinit2.o(.ARM.Collect$$libinit$$0000000E)
    .ARM.Collect$$libinit$$00000011          0x08000218   Section        0  libinit2.o(.ARM.Collect$$libinit$$00000011)
    .ARM.Collect$$libinit$$00000013          0x08000218   Section        0  libinit2.o(.ARM.Collect$$libinit$$00000013)
    .ARM.Collect$$libinit$$00000015          0x08000218   Section        0  libinit2.o(.ARM.Collect$$libinit$$00000015)
    .ARM.Collect$$libinit$$00000017          0x08000218   Section        0  libinit2.o(.ARM.Collect$$libinit$$00000017)
    .ARM.Collect$$libinit$$00000019          0x08000218   Section        0  libinit2.o(.ARM.Collect$$libinit$$00000019)
    .ARM.Collect$$libinit$$0000001B          0x08000218   Section        0  libinit2.o(.ARM.Collect$$libinit$$0000001B)
    .ARM.Collect$$libinit$$0000001D          0x08000218   Section        0  libinit2.o(.ARM.Collect$$libinit$$0000001D)
    .ARM.Collect$$libinit$$0000001F          0x08000218   Section        0  libinit2.o(.ARM.Collect$$libinit$$0000001F)
    .ARM.Collect$$libinit$$00000021          0x08000218   Section        0  libinit2.o(.ARM.Collect$$libinit$$00000021)
    .ARM.Collect$$libinit$$00000023          0x08000218   Section        0  libinit2.o(.ARM.Collect$$libinit$$00000023)
    .ARM.Collect$$libinit$$00000025          0x08000218   Section        0  libinit2.o(.ARM.Collect$$libinit$$00000025)
    .ARM.Collect$$libinit$$0000002C          0x08000218   Section        0  libinit2.o(.ARM.Collect$$libinit$$0000002C)
    .ARM.Collect$$libinit$$0000002E          0x08000218   Section        0  libinit2.o(.ARM.Collect$$libinit$$0000002E)
    .ARM.Collect$$libinit$$00000030          0x08000218   Section        0  libinit2.o(.ARM.Collect$$libinit$$00000030)
    .ARM.Collect$$libinit$$00000032          0x08000218   Section        0  libinit2.o(.ARM.Collect$$libinit$$00000032)
    .ARM.Collect$$libinit$$00000033          0x08000218   Section        2  libinit2.o(.ARM.Collect$$libinit$$00000033)
    .ARM.Collect$$libshutdown$$00000000      0x0800021a   Section        2  libshutdown.o(.ARM.Collect$$libshutdown$$00000000)
    .ARM.Collect$$libshutdown$$00000002      0x0800021c   Section        0  libshutdown2.o(.ARM.Collect$$libshutdown$$00000002)
    .ARM.Collect$$libshutdown$$00000004      0x0800021c   Section        0  libshutdown2.o(.ARM.Collect$$libshutdown$$00000004)
    .ARM.Collect$$libshutdown$$00000006      0x0800021c   Section        0  libshutdown2.o(.ARM.Collect$$libshutdown$$00000006)
    .ARM.Collect$$libshutdown$$00000009      0x0800021c   Section        0  libshutdown2.o(.ARM.Collect$$libshutdown$$00000009)
    .ARM.Collect$$libshutdown$$0000000C      0x0800021c   Section        0  libshutdown2.o(.ARM.Collect$$libshutdown$$0000000C)
    .ARM.Collect$$libshutdown$$0000000E      0x0800021c   Section        0  libshutdown2.o(.ARM.Collect$$libshutdown$$0000000E)
    .ARM.Collect$$libshutdown$$00000011      0x0800021c   Section        0  libshutdown2.o(.ARM.Collect$$libshutdown$$00000011)
    .ARM.Collect$$libshutdown$$00000012      0x0800021c   Section        2  libshutdown2.o(.ARM.Collect$$libshutdown$$00000012)
    .ARM.Collect$$rtentry$$00000000          0x0800021e   Section        0  __rtentry.o(.ARM.Collect$$rtentry$$00000000)
    .ARM.Collect$$rtentry$$00000002          0x0800021e   Section        0  __rtentry2.o(.ARM.Collect$$rtentry$$00000002)
    .ARM.Collect$$rtentry$$00000004          0x0800021e   Section        6  __rtentry4.o(.ARM.Collect$$rtentry$$00000004)
    .ARM.Collect$$rtentry$$00000009          0x08000224   Section        0  __rtentry2.o(.ARM.Collect$$rtentry$$00000009)
    .ARM.Collect$$rtentry$$0000000A          0x08000224   Section        4  __rtentry2.o(.ARM.Collect$$rtentry$$0000000A)
    .ARM.Collect$$rtentry$$0000000C          0x08000228   Section        0  __rtentry2.o(.ARM.Collect$$rtentry$$0000000C)
    .ARM.Collect$$rtentry$$0000000D          0x08000228   Section        8  __rtentry2.o(.ARM.Collect$$rtentry$$0000000D)
    .ARM.Collect$$rtexit$$00000000           0x08000230   Section        2  rtexit.o(.ARM.Collect$$rtexit$$00000000)
    .ARM.Collect$$rtexit$$00000002           0x08000232   Section        0  rtexit2.o(.ARM.Collect$$rtexit$$00000002)
    .ARM.Collect$$rtexit$$00000003           0x08000232   Section        4  rtexit2.o(.ARM.Collect$$rtexit$$00000003)
    .ARM.Collect$$rtexit$$00000004           0x08000236   Section        6  rtexit2.o(.ARM.Collect$$rtexit$$00000004)
    .text                                    0x0800023c   Section       56  startup_stm32f103xe.o(.text)
    .text                                    0x08000274   Section        2  use_no_semi_2.o(.text)
    .text                                    0x08000276   Section      238  lludivv7m.o(.text)
    .text                                    0x08000364   Section       72  llsdiv.o(.text)
    .text                                    0x080003ac   Section        0  noretval__2printf.o(.text)
    .text                                    0x080003c4   Section        0  _printf_pad.o(.text)
    .text                                    0x08000412   Section        0  _printf_str.o(.text)
    .text                                    0x08000464   Section        0  _printf_dec.o(.text)
    .text                                    0x080004dc   Section        0  _printf_longlong_dec.o(.text)
    .text                                    0x08000558   Section        0  _printf_hex_int.o(.text)
    .text                                    0x080005b0   Section        0  __printf_flags_ss_wp.o(.text)
    .text                                    0x08000738   Section        0  strchr.o(.text)
    .text                                    0x0800074c   Section        0  memcmp.o(.text)
    .text                                    0x080007a4   Section      138  rt_memcpy_v6.o(.text)
    .text                                    0x0800082e   Section      100  rt_memcpy_w.o(.text)
    .text                                    0x08000892   Section       16  aeabi_memset.o(.text)
    .text                                    0x080008a2   Section       68  rt_memclr.o(.text)
    .text                                    0x080008e6   Section       78  rt_memclr_w.o(.text)
    .text                                    0x08000934   Section        0  heapauxi.o(.text)
    .text                                    0x0800093a   Section        2  use_no_semi.o(.text)
    .text                                    0x0800093c   Section      138  lludiv10.o(.text)
    .text                                    0x080009c6   Section        0  _printf_intcommon.o(.text)
    .text                                    0x08000a78   Section        0  _printf_char.o(.text)
    .text                                    0x08000aa4   Section        0  _printf_char_file.o(.text)
    .text                                    0x08000ac8   Section        0  _printf_char_common.o(.text)
    _printf_input_char                       0x08000ac9   Thumb Code    10  _printf_char_common.o(.text)
    .text                                    0x08000af8   Section        0  ferror.o(.text)
    .text                                    0x08000b00   Section       74  sys_stackheap_outer.o(.text)
    .text                                    0x08000b4a   Section        0  exit.o(.text)
    .text                                    0x08000b5c   Section        8  libspace.o(.text)
    i.TIM4_IRQHandler                        0x08000b64   Section        0  usmart_port.o(i.TIM4_IRQHandler)
    i.USART1_IRQHandler                      0x08000ba0   Section        0  usart.o(i.USART1_IRQHandler)
    i._is_digit                              0x08000c24   Section        0  __printf_wp.o(i._is_digit)
    i._sys_exit                              0x08000c32   Section        0  usart.o(i._sys_exit)
    i.change_bitmap                          0x08000c36   Section        0  ff.o(i.change_bitmap)
    change_bitmap                            0x08000c37   Thumb Code   138  ff.o(i.change_bitmap)
    i.check_fs                               0x08000cc0   Section        0  ff.o(i.check_fs)
    check_fs                                 0x08000cc1   Thumb Code   236  ff.o(i.check_fs)
    i.clmt_clust                             0x08000dc4   Section        0  ff.o(i.clmt_clust)
    clmt_clust                               0x08000dc5   Thumb Code    98  ff.o(i.clmt_clust)
    i.clst2sect                              0x08000e26   Section        0  ff.o(i.clst2sect)
    clst2sect                                0x08000e27   Thumb Code    26  ff.o(i.clst2sect)
    i.cmp_lfn                                0x08000e40   Section        0  ff.o(i.cmp_lfn)
    cmp_lfn                                  0x08000e41   Thumb Code   148  ff.o(i.cmp_lfn)
    i.create_chain                           0x08000ed8   Section        0  ff.o(i.create_chain)
    create_chain                             0x08000ed9   Thumb Code   460  ff.o(i.create_chain)
    i.create_name                            0x080010a4   Section        0  ff.o(i.create_name)
    create_name                              0x080010a5   Thumb Code   584  ff.o(i.create_name)
    i.create_partition                       0x08001300   Section        0  ff.o(i.create_partition)
    create_partition                         0x08001301   Thumb Code   346  ff.o(i.create_partition)
    i.create_xdir                            0x0800145a   Section        0  ff.o(i.create_xdir)
    create_xdir                              0x0800145b   Thumb Code   144  ff.o(i.create_xdir)
    i.dbc_1st                                0x080014ec   Section        0  ff.o(i.dbc_1st)
    dbc_1st                                  0x080014ed   Thumb Code    46  ff.o(i.dbc_1st)
    i.dbc_2nd                                0x08001520   Section        0  ff.o(i.dbc_2nd)
    dbc_2nd                                  0x08001521   Thumb Code    66  ff.o(i.dbc_2nd)
    i.delay_init                             0x08001568   Section        0  delay.o(i.delay_init)
    i.delay_ms                               0x08001594   Section        0  delay.o(i.delay_ms)
    i.delay_us                               0x080015a8   Section        0  delay.o(i.delay_us)
    i.dir_alloc                              0x080015f0   Section        0  ff.o(i.dir_alloc)
    dir_alloc                                0x080015f1   Thumb Code   124  ff.o(i.dir_alloc)
    i.dir_clear                              0x0800166c   Section        0  ff.o(i.dir_clear)
    dir_clear                                0x0800166d   Thumb Code   194  ff.o(i.dir_clear)
    i.dir_find                               0x0800172e   Section        0  ff.o(i.dir_find)
    dir_find                                 0x0800172f   Thumb Code   424  ff.o(i.dir_find)
    i.dir_next                               0x080018d6   Section        0  ff.o(i.dir_next)
    dir_next                                 0x080018d7   Thumb Code   224  ff.o(i.dir_next)
    i.dir_read                               0x080019b6   Section        0  ff.o(i.dir_read)
    dir_read                                 0x080019b7   Thumb Code   258  ff.o(i.dir_read)
    i.dir_register                           0x08001ab8   Section        0  ff.o(i.dir_register)
    dir_register                             0x08001ab9   Thumb Code   554  ff.o(i.dir_register)
    i.dir_remove                             0x08001ce2   Section        0  ff.o(i.dir_remove)
    dir_remove                               0x08001ce3   Thumb Code   114  ff.o(i.dir_remove)
    i.dir_sdi                                0x08001d54   Section        0  ff.o(i.dir_sdi)
    i.disk_initialize                        0x08001dfe   Section        0  diskio.o(i.disk_initialize)
    i.disk_ioctl                             0x08001e2c   Section        0  diskio.o(i.disk_ioctl)
    i.disk_read                              0x08001edc   Section        0  diskio.o(i.disk_read)
    i.disk_status                            0x08001f5a   Section        0  diskio.o(i.disk_status)
    i.disk_write                             0x08001f60   Section        0  diskio.o(i.disk_write)
    i.exfuns_get_free                        0x08001fde   Section        0  exfuns.o(i.exfuns_get_free)
    i.exfuns_init                            0x08002028   Section        0  exfuns.o(i.exfuns_init)
    i.f_close                                0x0800206c   Section        0  ff.o(i.f_close)
    i.f_closedir                             0x08002092   Section        0  ff.o(i.f_closedir)
    i.f_getfree                              0x080020aa   Section        0  ff.o(i.f_getfree)
    i.f_getlabel                             0x08002206   Section        0  ff.o(i.f_getlabel)
    i.f_gets                                 0x08002342   Section        0  ff.o(i.f_gets)
    i.f_lseek                                0x08002392   Section        0  ff.o(i.f_lseek)
    i.f_mkdir                                0x080027e8   Section        0  ff.o(i.f_mkdir)
    i.f_mkfs                                 0x0800298c   Section        0  ff.o(i.f_mkfs)
    i.f_mount                                0x08003788   Section        0  ff.o(i.f_mount)
    i.f_open                                 0x080037dc   Section        0  ff.o(i.f_open)
    i.f_opendir                              0x08003aee   Section        0  ff.o(i.f_opendir)
    i.f_putc                                 0x08003ba6   Section        0  ff.o(i.f_putc)
    i.f_puts                                 0x08003bc8   Section        0  ff.o(i.f_puts)
    i.f_read                                 0x08003bf4   Section        0  ff.o(i.f_read)
    i.f_readdir                              0x08003e1c   Section        0  ff.o(i.f_readdir)
    i.f_rename                               0x08003e8c   Section        0  ff.o(i.f_rename)
    i.f_setlabel                             0x08004090   Section        0  ff.o(i.f_setlabel)
    i.f_sync                                 0x0800427c   Section        0  ff.o(i.f_sync)
    i.f_unlink                               0x08004424   Section        0  ff.o(i.f_unlink)
    i.f_write                                0x08004520   Section        0  ff.o(i.f_write)
    i.ff_memalloc                            0x080047a4   Section        0  ffsystem.o(i.ff_memalloc)
    i.ff_memfree                             0x080047b2   Section        0  ffsystem.o(i.ff_memfree)
    i.ff_oem2uni                             0x080047c0   Section        0  ffunicode.o(i.ff_oem2uni)
    i.ff_uni2oem                             0x08004828   Section        0  ffunicode.o(i.ff_uni2oem)
    i.ff_wtoupper                            0x0800489c   Section        0  ffunicode.o(i.ff_wtoupper)
    i.fill_first_frag                        0x0800494c   Section        0  ff.o(i.fill_first_frag)
    fill_first_frag                          0x0800494d   Thumb Code    54  ff.o(i.fill_first_frag)
    i.fill_last_frag                         0x08004982   Section        0  ff.o(i.fill_last_frag)
    fill_last_frag                           0x08004983   Thumb Code    68  ff.o(i.fill_last_frag)
    i.find_bitmap                            0x080049c6   Section        0  ff.o(i.find_bitmap)
    find_bitmap                              0x080049c7   Thumb Code   164  ff.o(i.find_bitmap)
    i.find_volume                            0x08004a6a   Section        0  ff.o(i.find_volume)
    find_volume                              0x08004a6b   Thumb Code   120  ff.o(i.find_volume)
    i.follow_path                            0x08004ae2   Section        0  ff.o(i.follow_path)
    follow_path                              0x08004ae3   Thumb Code   196  ff.o(i.follow_path)
    i.fputc                                  0x08004ba8   Section        0  usart.o(i.fputc)
    i.gen_numname                            0x08004bc4   Section        0  ff.o(i.gen_numname)
    gen_numname                              0x08004bc5   Thumb Code   206  ff.o(i.gen_numname)
    i.get_fat                                0x08004c98   Section        0  ff.o(i.get_fat)
    get_fat                                  0x08004c99   Thumb Code   404  ff.o(i.get_fat)
    i.get_fattime                            0x08004e2c   Section        0  ffsystem.o(i.get_fattime)
    i.get_fileinfo                           0x08004e30   Section        0  ff.o(i.get_fileinfo)
    get_fileinfo                             0x08004e31   Thumb Code   634  ff.o(i.get_fileinfo)
    i.get_ldnumber                           0x080050aa   Section        0  ff.o(i.get_ldnumber)
    get_ldnumber                             0x080050ab   Thumb Code    78  ff.o(i.get_ldnumber)
    i.init_alloc_info                        0x080050f8   Section        0  ff.o(i.init_alloc_info)
    init_alloc_info                          0x080050f9   Thumb Code    50  ff.o(i.init_alloc_info)
    i.key_init                               0x0800512c   Section        0  key.o(i.key_init)
    i.lcd_clear                              0x080051c0   Section        0  lcd.o(i.lcd_clear)
    i.lcd_display_dir                        0x080051f4   Section        0  lcd.o(i.lcd_display_dir)
    i.lcd_draw_point                         0x08005360   Section        0  lcd.o(i.lcd_draw_point)
    i.lcd_ex_ili9341_reginit                 0x08005380   Section        0  lcd.o(i.lcd_ex_ili9341_reginit)
    i.lcd_ex_ili9806_reginit                 0x080055ac   Section        0  lcd.o(i.lcd_ex_ili9806_reginit)
    i.lcd_ex_nt35310_reginit                 0x080058ec   Section        0  lcd.o(i.lcd_ex_nt35310_reginit)
    i.lcd_ex_nt35510_reginit                 0x080067de   Section        0  lcd.o(i.lcd_ex_nt35510_reginit)
    i.lcd_ex_ssd1963_reginit                 0x0800774c   Section        0  lcd.o(i.lcd_ex_ssd1963_reginit)
    i.lcd_ex_st7789_reginit                  0x080078ba   Section        0  lcd.o(i.lcd_ex_st7789_reginit)
    i.lcd_ex_st7796_reginit                  0x08007a62   Section        0  lcd.o(i.lcd_ex_st7796_reginit)
    i.lcd_fill                               0x08007c28   Section        0  lcd.o(i.lcd_fill)
    i.lcd_init                               0x08007c7c   Section        0  lcd.o(i.lcd_init)
    i.lcd_opt_delay                          0x08008108   Section        0  lcd.o(i.lcd_opt_delay)
    lcd_opt_delay                            0x08008109   Thumb Code    12  lcd.o(i.lcd_opt_delay)
    i.lcd_pow                                0x08008114   Section        0  lcd.o(i.lcd_pow)
    lcd_pow                                  0x08008115   Thumb Code    22  lcd.o(i.lcd_pow)
    i.lcd_rd_data                            0x0800812c   Section        0  lcd.o(i.lcd_rd_data)
    lcd_rd_data                              0x0800812d   Thumb Code    20  lcd.o(i.lcd_rd_data)
    i.lcd_scan_dir                           0x08008144   Section        0  lcd.o(i.lcd_scan_dir)
    i.lcd_set_cursor                         0x08008380   Section        0  lcd.o(i.lcd_set_cursor)
    i.lcd_show_char                          0x080084a0   Section        0  lcd.o(i.lcd_show_char)
    i.lcd_show_num                           0x080085e0   Section        0  lcd.o(i.lcd_show_num)
    i.lcd_show_string                        0x08008678   Section        0  lcd.o(i.lcd_show_string)
    i.lcd_ssd_backlight_set                  0x080086e4   Section        0  lcd.o(i.lcd_ssd_backlight_set)
    i.lcd_wr_data                            0x08008738   Section        0  lcd.o(i.lcd_wr_data)
    i.lcd_wr_regno                           0x08008750   Section        0  lcd.o(i.lcd_wr_regno)
    i.lcd_write_ram_prepare                  0x08008768   Section        0  lcd.o(i.lcd_write_ram_prepare)
    i.lcd_write_reg                          0x0800877c   Section        0  lcd.o(i.lcd_write_reg)
    i.ld_clust                               0x0800878c   Section        0  ff.o(i.ld_clust)
    ld_clust                                 0x0800878d   Thumb Code    38  ff.o(i.ld_clust)
    i.ld_dword                               0x080087b2   Section        0  ff.o(i.ld_dword)
    ld_dword                                 0x080087b3   Thumb Code    24  ff.o(i.ld_dword)
    i.ld_qword                               0x080087ca   Section        0  ff.o(i.ld_qword)
    ld_qword                                 0x080087cb   Thumb Code    98  ff.o(i.ld_qword)
    i.ld_word                                0x0800882c   Section        0  ff.o(i.ld_word)
    ld_word                                  0x0800882d   Thumb Code    12  ff.o(i.ld_word)
    i.led_init                               0x08008838   Section        0  led.o(i.led_init)
    i.load_obj_xdir                          0x080088a0   Section        0  ff.o(i.load_obj_xdir)
    load_obj_xdir                            0x080088a1   Thumb Code    64  ff.o(i.load_obj_xdir)
    i.load_xdir                              0x080088e0   Section        0  ff.o(i.load_xdir)
    load_xdir                                0x080088e1   Thumb Code   270  ff.o(i.load_xdir)
    i.main                                   0x080089f0   Section        0  main.o(i.main)
    i.mf_close                               0x08008dac   Section        0  fattester.o(i.mf_close)
    i.mf_closedir                            0x08008dc0   Section        0  fattester.o(i.mf_closedir)
    i.mf_fmkfs                               0x08008dd0   Section        0  fattester.o(i.mf_fmkfs)
    i.mf_free                                0x08008dfc   Section        0  fattester.o(i.mf_free)
    i.mf_getlabel                            0x08008e1c   Section        0  fattester.o(i.mf_getlabel)
    i.mf_gets                                0x08008ea0   Section        0  fattester.o(i.mf_gets)
    i.mf_init                                0x08008ee8   Section        0  fattester.o(i.mf_init)
    i.mf_lseek                               0x08008f28   Section        0  fattester.o(i.mf_lseek)
    i.mf_mkdir                               0x08008f40   Section        0  fattester.o(i.mf_mkdir)
    i.mf_mount                               0x08008f4c   Section        0  fattester.o(i.mf_mount)
    i.mf_open                                0x08008f64   Section        0  fattester.o(i.mf_open)
    i.mf_opendir                             0x08008f80   Section        0  fattester.o(i.mf_opendir)
    i.mf_putc                                0x08008f94   Section        0  fattester.o(i.mf_putc)
    i.mf_puts                                0x08008fac   Section        0  fattester.o(i.mf_puts)
    i.mf_read                                0x08008fc4   Section        0  fattester.o(i.mf_read)
    i.mf_readdir                             0x08009120   Section        0  fattester.o(i.mf_readdir)
    i.mf_rename                              0x08009394   Section        0  fattester.o(i.mf_rename)
    i.mf_scan_files                          0x080093a4   Section        0  fattester.o(i.mf_scan_files)
    i.mf_setlabel                            0x08009408   Section        0  fattester.o(i.mf_setlabel)
    i.mf_showfree                            0x08009464   Section        0  fattester.o(i.mf_showfree)
    i.mf_size                                0x0800950c   Section        0  fattester.o(i.mf_size)
    i.mf_tell                                0x08009518   Section        0  fattester.o(i.mf_tell)
    i.mf_unlink                              0x08009524   Section        0  fattester.o(i.mf_unlink)
    i.mf_write                               0x08009530   Section        0  fattester.o(i.mf_write)
    i.mount_volume                           0x080095f4   Section        0  ff.o(i.mount_volume)
    mount_volume                             0x080095f5   Thumb Code  1128  ff.o(i.mount_volume)
    i.move_window                            0x08009a68   Section        0  ff.o(i.move_window)
    move_window                              0x08009a69   Thumb Code    52  ff.o(i.move_window)
    i.my_mem_free                            0x08009a9c   Section        0  malloc.o(i.my_mem_free)
    my_mem_free                              0x08009a9d   Thumb Code    96  malloc.o(i.my_mem_free)
    i.my_mem_init                            0x08009b08   Section        0  malloc.o(i.my_mem_init)
    i.my_mem_malloc                          0x08009b38   Section        0  malloc.o(i.my_mem_malloc)
    my_mem_malloc                            0x08009b39   Thumb Code   156  malloc.o(i.my_mem_malloc)
    i.my_mem_perused                         0x08009be0   Section        0  malloc.o(i.my_mem_perused)
    i.my_mem_set                             0x08009c20   Section        0  malloc.o(i.my_mem_set)
    i.myfree                                 0x08009c34   Section        0  malloc.o(i.myfree)
    i.mymalloc                               0x08009c58   Section        0  malloc.o(i.mymalloc)
    i.norflash_erase_sector                  0x08009c80   Section        0  norflash.o(i.norflash_erase_sector)
    i.norflash_init                          0x08009cbc   Section        0  norflash.o(i.norflash_init)
    i.norflash_read                          0x08009d54   Section        0  norflash.o(i.norflash_read)
    i.norflash_read_id                       0x08009d9c   Section        0  norflash.o(i.norflash_read_id)
    i.norflash_read_sr                       0x08009de4   Section        0  norflash.o(i.norflash_read_sr)
    i.norflash_send_address                  0x08009e38   Section        0  norflash.o(i.norflash_send_address)
    norflash_send_address                    0x08009e39   Thumb Code    46  norflash.o(i.norflash_send_address)
    i.norflash_wait_busy                     0x08009e6c   Section        0  norflash.o(i.norflash_wait_busy)
    norflash_wait_busy                       0x08009e6d   Thumb Code    20  norflash.o(i.norflash_wait_busy)
    i.norflash_write                         0x08009e80   Section        0  norflash.o(i.norflash_write)
    i.norflash_write_enable                  0x08009f38   Section        0  norflash.o(i.norflash_write_enable)
    i.norflash_write_nocheck                 0x08009f5c   Section        0  norflash.o(i.norflash_write_nocheck)
    norflash_write_nocheck                   0x08009f5d   Thumb Code    70  norflash.o(i.norflash_write_nocheck)
    i.norflash_write_page                    0x08009fa4   Section        0  norflash.o(i.norflash_write_page)
    norflash_write_page                      0x08009fa5   Thumb Code    74  norflash.o(i.norflash_write_page)
    i.norflash_write_sr                      0x08009ff4   Section        0  norflash.o(i.norflash_write_sr)
    i.pick_lfn                               0x0800a044   Section        0  ff.o(i.pick_lfn)
    pick_lfn                                 0x0800a045   Thumb Code   136  ff.o(i.pick_lfn)
    i.put_fat                                0x0800a0d0   Section        0  ff.o(i.put_fat)
    put_fat                                  0x0800a0d1   Thumb Code   324  ff.o(i.put_fat)
    i.put_lfn                                0x0800a214   Section        0  ff.o(i.put_lfn)
    put_lfn                                  0x0800a215   Thumb Code   124  ff.o(i.put_lfn)
    i.put_utf                                0x0800a294   Section        0  ff.o(i.put_utf)
    put_utf                                  0x0800a295   Thumb Code    66  ff.o(i.put_utf)
    i.putc_bfd                               0x0800a2d6   Section        0  ff.o(i.putc_bfd)
    putc_bfd                                 0x0800a2d7   Thumb Code    68  ff.o(i.putc_bfd)
    i.putc_flush                             0x0800a31a   Section        0  ff.o(i.putc_flush)
    putc_flush                               0x0800a31b   Thumb Code    44  ff.o(i.putc_flush)
    i.putc_init                              0x0800a346   Section        0  ff.o(i.putc_init)
    putc_init                                0x0800a347   Thumb Code    18  ff.o(i.putc_init)
    i.read_addr                              0x0800a358   Section        0  usmart.o(i.read_addr)
    i.remove_chain                           0x0800a35e   Section        0  ff.o(i.remove_chain)
    remove_chain                             0x0800a35f   Thumb Code   330  ff.o(i.remove_chain)
    i.sd_init                                0x0800a4a8   Section        0  sdio_sdcard.o(i.sd_init)
    i.sd_read_disk                           0x0800a61c   Section        0  sdio_sdcard.o(i.sd_read_disk)
    i.sd_write_disk                          0x0800a6a4   Section        0  sdio_sdcard.o(i.sd_write_disk)
    i.sdmmc_clock_set                        0x0800a730   Section        0  sdio_sdcard.o(i.sdmmc_clock_set)
    sdmmc_clock_set                          0x0800a731   Thumb Code    16  sdio_sdcard.o(i.sdmmc_clock_set)
    i.sdmmc_cmd_error                        0x0800a744   Section        0  sdio_sdcard.o(i.sdmmc_cmd_error)
    sdmmc_cmd_error                          0x0800a745   Thumb Code    46  sdio_sdcard.o(i.sdmmc_cmd_error)
    i.sdmmc_cmd_resp1_error                  0x0800a77c   Section        0  sdio_sdcard.o(i.sdmmc_cmd_resp1_error)
    sdmmc_cmd_resp1_error                    0x0800a77d   Thumb Code   104  sdio_sdcard.o(i.sdmmc_cmd_resp1_error)
    i.sdmmc_cmd_resp2_error                  0x0800a7ec   Section        0  sdio_sdcard.o(i.sdmmc_cmd_resp2_error)
    sdmmc_cmd_resp2_error                    0x0800a7ed   Thumb Code    86  sdio_sdcard.o(i.sdmmc_cmd_resp2_error)
    i.sdmmc_cmd_resp3_error                  0x0800a84c   Section        0  sdio_sdcard.o(i.sdmmc_cmd_resp3_error)
    sdmmc_cmd_resp3_error                    0x0800a84d   Thumb Code    62  sdio_sdcard.o(i.sdmmc_cmd_resp3_error)
    i.sdmmc_cmd_resp6_error                  0x0800a894   Section        0  sdio_sdcard.o(i.sdmmc_cmd_resp6_error)
    sdmmc_cmd_resp6_error                    0x0800a895   Thumb Code   152  sdio_sdcard.o(i.sdmmc_cmd_resp6_error)
    i.sdmmc_cmd_resp7_error                  0x0800a934   Section        0  sdio_sdcard.o(i.sdmmc_cmd_resp7_error)
    sdmmc_cmd_resp7_error                    0x0800a935   Thumb Code    80  sdio_sdcard.o(i.sdmmc_cmd_resp7_error)
    i.sdmmc_find_scr                         0x0800a988   Section        0  sdio_sdcard.o(i.sdmmc_find_scr)
    sdmmc_find_scr                           0x0800a989   Thumb Code   296  sdio_sdcard.o(i.sdmmc_find_scr)
    i.sdmmc_get_card_info                    0x0800aab8   Section        0  sdio_sdcard.o(i.sdmmc_get_card_info)
    sdmmc_get_card_info                      0x0800aab9   Thumb Code   768  sdio_sdcard.o(i.sdmmc_get_card_info)
    i.sdmmc_initialize_cards                 0x0800adc8   Section        0  sdio_sdcard.o(i.sdmmc_initialize_cards)
    sdmmc_initialize_cards                   0x0800adc9   Thumb Code   240  sdio_sdcard.o(i.sdmmc_initialize_cards)
    i.sdmmc_is_card_programming              0x0800aecc   Section        0  sdio_sdcard.o(i.sdmmc_is_card_programming)
    sdmmc_is_card_programming                0x0800aecd   Thumb Code   132  sdio_sdcard.o(i.sdmmc_is_card_programming)
    i.sdmmc_power_on                         0x0800af5c   Section        0  sdio_sdcard.o(i.sdmmc_power_on)
    sdmmc_power_on                           0x0800af5d   Thumb Code   344  sdio_sdcard.o(i.sdmmc_power_on)
    i.sdmmc_read_blocks                      0x0800b0c4   Section        0  sdio_sdcard.o(i.sdmmc_read_blocks)
    sdmmc_read_blocks                        0x0800b0c5   Thumb Code   410  sdio_sdcard.o(i.sdmmc_read_blocks)
    i.sdmmc_select_deselect                  0x0800b28c   Section        0  sdio_sdcard.o(i.sdmmc_select_deselect)
    sdmmc_select_deselect                    0x0800b28d   Thumb Code    22  sdio_sdcard.o(i.sdmmc_select_deselect)
    i.sdmmc_send_cmd                         0x0800b2a4   Section        0  sdio_sdcard.o(i.sdmmc_send_cmd)
    sdmmc_send_cmd                           0x0800b2a5   Thumb Code    32  sdio_sdcard.o(i.sdmmc_send_cmd)
    i.sdmmc_send_data_cfg                    0x0800b2c8   Section        0  sdio_sdcard.o(i.sdmmc_send_data_cfg)
    sdmmc_send_data_cfg                      0x0800b2c9   Thumb Code    48  sdio_sdcard.o(i.sdmmc_send_data_cfg)
    i.sdmmc_wide_bus_enable                  0x0800b2fc   Section        0  sdio_sdcard.o(i.sdmmc_wide_bus_enable)
    sdmmc_wide_bus_enable                    0x0800b2fd   Thumb Code   118  sdio_sdcard.o(i.sdmmc_wide_bus_enable)
    i.sdmmc_wide_bus_operation               0x0800b37c   Section        0  sdio_sdcard.o(i.sdmmc_wide_bus_operation)
    sdmmc_wide_bus_operation                 0x0800b37d   Thumb Code    86  sdio_sdcard.o(i.sdmmc_wide_bus_operation)
    i.sdmmc_write_blocks                     0x0800b3dc   Section        0  sdio_sdcard.o(i.sdmmc_write_blocks)
    sdmmc_write_blocks                       0x0800b3dd   Thumb Code   738  sdio_sdcard.o(i.sdmmc_write_blocks)
    i.spi2_init                              0x0800b6d0   Section        0  spi.o(i.spi2_init)
    i.spi2_read_write_byte                   0x0800b78c   Section        0  spi.o(i.spi2_read_write_byte)
    i.spi2_set_speed                         0x0800b7c0   Section        0  spi.o(i.spi2_set_speed)
    i.sram_init                              0x0800b7f4   Section        0  sram.o(i.sram_init)
    i.st_clust                               0x0800b960   Section        0  ff.o(i.st_clust)
    st_clust                                 0x0800b961   Thumb Code    36  ff.o(i.st_clust)
    i.st_dword                               0x0800b984   Section        0  ff.o(i.st_dword)
    st_dword                                 0x0800b985   Thumb Code    24  ff.o(i.st_dword)
    i.st_qword                               0x0800b99c   Section        0  ff.o(i.st_qword)
    st_qword                                 0x0800b99d   Thumb Code    92  ff.o(i.st_qword)
    i.st_word                                0x0800b9f8   Section        0  ff.o(i.st_word)
    st_word                                  0x0800b9f9   Thumb Code    12  ff.o(i.st_word)
    i.store_xdir                             0x0800ba04   Section        0  ff.o(i.store_xdir)
    store_xdir                               0x0800ba05   Thumb Code   114  ff.o(i.store_xdir)
    i.sum_sfn                                0x0800ba76   Section        0  ff.o(i.sum_sfn)
    sum_sfn                                  0x0800ba77   Thumb Code    32  ff.o(i.sum_sfn)
    i.sync_fs                                0x0800ba98   Section        0  ff.o(i.sync_fs)
    sync_fs                                  0x0800ba99   Thumb Code   132  ff.o(i.sync_fs)
    i.sync_window                            0x0800bb24   Section        0  ff.o(i.sync_window)
    sync_window                              0x0800bb25   Thumb Code    74  ff.o(i.sync_window)
    i.sys_clock_set                          0x0800bb70   Section        0  sys.o(i.sys_clock_set)
    i.sys_gpio_pin_set                       0x0800bc1c   Section        0  sys.o(i.sys_gpio_pin_set)
    i.sys_gpio_set                           0x0800bc34   Section        0  sys.o(i.sys_gpio_set)
    i.sys_intx_disable                       0x0800bd1e   Section        0  sys.o(i.sys_intx_disable)
    i.sys_intx_enable                        0x0800bd22   Section        0  sys.o(i.sys_intx_enable)
    i.sys_nvic_init                          0x0800bd28   Section        0  sys.o(i.sys_nvic_init)
    i.sys_nvic_priority_group_config         0x0800bda0   Section        0  sys.o(i.sys_nvic_priority_group_config)
    sys_nvic_priority_group_config           0x0800bda1   Thumb Code    32  sys.o(i.sys_nvic_priority_group_config)
    i.sys_nvic_set_vector_table              0x0800bdc8   Section        0  sys.o(i.sys_nvic_set_vector_table)
    i.sys_stm32_clock_init                   0x0800bdd8   Section        0  sys.o(i.sys_stm32_clock_init)
    i.tchar2uni                              0x0800be48   Section        0  ff.o(i.tchar2uni)
    tchar2uni                                0x0800be49   Thumb Code    76  ff.o(i.tchar2uni)
    i.usart_init                             0x0800be94   Section        0  usart.o(i.usart_init)
    i.usmart_cmd_rec                         0x0800bf58   Section        0  usmart.o(i.usmart_cmd_rec)
    i.usmart_exe                             0x0800c008   Section        0  usmart.o(i.usmart_exe)
    i.usmart_get_aparm                       0x0800c2dc   Section        0  usmart_str.o(i.usmart_get_aparm)
    i.usmart_get_cmdname                     0x0800c3b0   Section        0  usmart_str.o(i.usmart_get_cmdname)
    i.usmart_get_fname                       0x0800c3e8   Section        0  usmart_str.o(i.usmart_get_fname)
    i.usmart_get_fparam                      0x0800c5a8   Section        0  usmart_str.o(i.usmart_get_fparam)
    i.usmart_get_input_string                0x0800c6b4   Section        0  usmart_port.o(i.usmart_get_input_string)
    i.usmart_get_parmpos                     0x0800c6dc   Section        0  usmart_str.o(i.usmart_get_parmpos)
    i.usmart_init                            0x0800c6fc   Section        0  usmart.o(i.usmart_init)
    i.usmart_pow                             0x0800c714   Section        0  usmart_str.o(i.usmart_pow)
    i.usmart_scan                            0x0800c72c   Section        0  usmart.o(i.usmart_scan)
    i.usmart_search_nextc                    0x0800c7d4   Section        0  usmart_str.o(i.usmart_search_nextc)
    i.usmart_str2num                         0x0800c7ea   Section        0  usmart_str.o(i.usmart_str2num)
    i.usmart_strcmp                          0x0800c8f0   Section        0  usmart_str.o(i.usmart_strcmp)
    i.usmart_strcopy                         0x0800c912   Section        0  usmart_str.o(i.usmart_strcopy)
    i.usmart_strlen                          0x0800c928   Section        0  usmart_str.o(i.usmart_strlen)
    i.usmart_sys_cmd_exe                     0x0800c940   Section        0  usmart.o(i.usmart_sys_cmd_exe)
    i.usmart_timx_get_time                   0x0800d034   Section        0  usmart_port.o(i.usmart_timx_get_time)
    i.usmart_timx_init                       0x0800d074   Section        0  usmart_port.o(i.usmart_timx_init)
    i.usmart_timx_reset_time                 0x0800d0dc   Section        0  usmart_port.o(i.usmart_timx_reset_time)
    i.validate                               0x0800d10c   Section        0  ff.o(i.validate)
    validate                                 0x0800d10d   Thumb Code    60  ff.o(i.validate)
    i.write_addr                             0x0800d148   Section        0  usmart.o(i.write_addr)
    i.xdir_sum                               0x0800d14c   Section        0  ff.o(i.xdir_sum)
    xdir_sum                                 0x0800d14d   Thumb Code    58  ff.o(i.xdir_sum)
    i.xname_sum                              0x0800d186   Section        0  ff.o(i.xname_sum)
    xname_sum                                0x0800d187   Thumb Code    76  ff.o(i.xname_sum)
    i.xsum32                                 0x0800d1d2   Section        0  ff.o(i.xsum32)
    xsum32                                   0x0800d1d3   Thumb Code    26  ff.o(i.xsum32)
    x$fpl$dfixu                              0x0800d1ec   Section       90  dfixu.o(x$fpl$dfixu)
    x$fpl$dfltu                              0x0800d246   Section       38  dflt_clz.o(x$fpl$dfltu)
    x$fpl$dmul                               0x0800d26c   Section      340  dmul.o(x$fpl$dmul)
    x$fpl$dnaninf                            0x0800d3c0   Section      156  dnaninf.o(x$fpl$dnaninf)
    x$fpl$dretinf                            0x0800d45c   Section       12  dretinf.o(x$fpl$dretinf)
    .constdata                               0x0800d468   Section    12160  lcd.o(.constdata)
    x$fpl$usenofp                            0x0800d468   Section        0  usenofp.o(x$fpl$usenofp)
    .constdata                               0x080103e8   Section       24  malloc.o(.constdata)
    .constdata                               0x08010400   Section       88  ff.o(.constdata)
    LfnOfs                                   0x08010400   Data          13  ff.o(.constdata)
    DbcTbl                                   0x0801040d   Data          10  ff.o(.constdata)
    badchr                                   0x08010417   Data          18  ff.o(.constdata)
    cst                                      0x0801042a   Data          14  ff.o(.constdata)
    cst32                                    0x08010438   Data          14  ff.o(.constdata)
    defopt                                   0x08010448   Data          16  ff.o(.constdata)
    .constdata                               0x08010458   Section    175030  ffunicode.o(.constdata)
    uni2oem936                               0x08010458   Data       87172  ffunicode.o(.constdata)
    oem2uni936                               0x080258dc   Data       87172  ffunicode.o(.constdata)
    cvt1                                     0x0803ad60   Data         498  ffunicode.o(.constdata)
    cvt2                                     0x0803af52   Data         188  ffunicode.o(.constdata)
    .constdata                               0x0803b010   Section       16  fattester.o(.constdata)
    .constdata                               0x0803b020   Section       40  _printf_hex_int.o(.constdata)
    uc_hextab                                0x0803b020   Data          20  _printf_hex_int.o(.constdata)
    lc_hextab                                0x0803b034   Data          20  _printf_hex_int.o(.constdata)
    .constdata                               0x0803b048   Section       17  __printf_flags_ss_wp.o(.constdata)
    maptable                                 0x0803b048   Data          17  __printf_flags_ss_wp.o(.constdata)
    .conststring                             0x0803b05c   Section       40  usmart.o(.conststring)
    .conststring                             0x0803b084   Section      908  usmart_config.o(.conststring)
    .data                                    0x20000000   Section        4  delay.o(.data)
    g_fac_us                                 0x20000000   Data           4  delay.o(.data)
    .data                                    0x20000004   Section        6  usart.o(.data)
    .data                                    0x2000000c   Section        8  lcd.o(.data)
    .data                                    0x20000014   Section        8  sdio_sdcard.o(.data)
    CardType                                 0x20000014   Data           1  sdio_sdcard.o(.data)
    RCA                                      0x20000018   Data           4  sdio_sdcard.o(.data)
    .data                                    0x2000001c   Section        2  norflash.o(.data)
    .data                                    0x20000020   Section       28  malloc.o(.data)
    .data                                    0x2000003c   Section       10  ff.o(.data)
    FatFs                                    0x2000003c   Data           8  ff.o(.data)
    Fsid                                     0x20000044   Data           2  ff.o(.data)
    .data                                    0x20000048   Section        8  exfuns.o(.data)
    .data                                    0x20000050   Section       28  usmart.o(.data)
    .data                                    0x2000006c   Section      452  usmart_config.o(.data)
    .bss                                     0x20000230   Section      200  usart.o(.bss)
    .bss                                     0x200002f8   Section       14  lcd.o(.bss)
    .bss                                     0x20000308   Section      632  sdio_sdcard.o(.bss)
    CSD_Tab                                  0x20000308   Data          16  sdio_sdcard.o(.bss)
    CID_Tab                                  0x20000318   Data          16  sdio_sdcard.o(.bss)
    .bss                                     0x20000580   Section     4096  norflash.o(.bss)
    .bss                                     0x20001580   Section    43520  malloc.o(.bss)
    mem1base                                 0x20001580   Data       40960  malloc.o(.bss)
    mem1mapbase                              0x2000b580   Data        2560  malloc.o(.bss)
    .bss                                     0x2000bf80   Section      384  fattester.o(.bss)
    .bss                                     0x2000c100   Section       96  libspace.o(.bss)
    HEAP                                     0x2000c160   Section      512  startup_stm32f103xe.o(HEAP)
    Heap_Mem                                 0x2000c160   Data         512  startup_stm32f103xe.o(HEAP)
    STACK                                    0x2000c360   Section     1024  startup_stm32f103xe.o(STACK)
    Stack_Mem                                0x2000c360   Data        1024  startup_stm32f103xe.o(STACK)
    __initial_sp                             0x2000c760   Data           0  startup_stm32f103xe.o(STACK)
    .ARM.__AT_0x68000000                     0x68000000   Section    986112  malloc.o(.ARM.__AT_0x68000000)
    mem2base                                 0x68000000   Data       986112  malloc.o(.ARM.__AT_0x68000000)
    .ARM.__AT_0x680F0C00                     0x680f0c00   Section    61632  malloc.o(.ARM.__AT_0x680F0C00)
    mem2mapbase                              0x680f0c00   Data       61632  malloc.o(.ARM.__AT_0x680F0C00)

    Global Symbols

    Symbol Name                              Value     Ov Type        Size  Object(Section)

    BuildAttributes$$THM_ISAv4$P$D$K$B$S$PE$A:L22UL41UL21$X:L11$S22US41US21$IEEE1$IW$USESV6$~STKCKD$USESV7$~SHL$OSPACE$ROPI$EBA8$UX$STANDARDLIB$REQ8$PRES8$EABIv2 0x00000000   Number         0  anon$$obj.o ABSOLUTE
    __ARM_use_no_argv                        0x00000000   Number         0  main.o ABSOLUTE
    _printf_flags                            0x00000000   Number         0  printf_stubs.o ABSOLUTE
    _printf_return_value                     0x00000000   Number         0  printf_stubs.o ABSOLUTE
    _printf_sizespec                         0x00000000   Number         0  printf_stubs.o ABSOLUTE
    _printf_widthprec                        0x00000000   Number         0  printf_stubs.o ABSOLUTE
    __ARM_exceptions_init                     - Undefined Weak Reference
    __alloca_initialize                       - Undefined Weak Reference
    __arm_fini_                               - Undefined Weak Reference
    __arm_preinit_                            - Undefined Weak Reference
    __cpp_initialize__aeabi_                  - Undefined Weak Reference
    __cxa_finalize                            - Undefined Weak Reference
    __rt_locale                               - Undefined Weak Reference
    __sigvec_lookup                           - Undefined Weak Reference
    _atexit_init                              - Undefined Weak Reference
    _call_atexit_fns                          - Undefined Weak Reference
    _clock_init                               - Undefined Weak Reference
    _fp_trap_init                             - Undefined Weak Reference
    _fp_trap_shutdown                         - Undefined Weak Reference
    _get_lc_collate                           - Undefined Weak Reference
    _get_lc_ctype                             - Undefined Weak Reference
    _get_lc_monetary                          - Undefined Weak Reference
    _get_lc_numeric                           - Undefined Weak Reference
    _get_lc_time                              - Undefined Weak Reference
    _getenv_init                              - Undefined Weak Reference
    _handle_redirection                       - Undefined Weak Reference
    _init_alloc                               - Undefined Weak Reference
    _init_user_alloc                          - Undefined Weak Reference
    _initio                                   - Undefined Weak Reference
    _mutex_acquire                            - Undefined Weak Reference
    _mutex_release                            - Undefined Weak Reference
    _printf_mbtowc                            - Undefined Weak Reference
    _printf_truncate_signed                   - Undefined Weak Reference
    _printf_truncate_unsigned                 - Undefined Weak Reference
    _rand_init                                - Undefined Weak Reference
    _signal_finish                            - Undefined Weak Reference
    _signal_init                              - Undefined Weak Reference
    _terminate_alloc                          - Undefined Weak Reference
    _terminate_user_alloc                     - Undefined Weak Reference
    _terminateio                              - Undefined Weak Reference
    __Vectors_Size                           0x00000130   Number         0  startup_stm32f103xe.o ABSOLUTE
    __Vectors                                0x08000000   Data           4  startup_stm32f103xe.o(RESET)
    __Vectors_End                            0x08000130   Data           0  startup_stm32f103xe.o(RESET)
    __main                                   0x08000131   Thumb Code     8  __main.o(!!!main)
    __scatterload                            0x08000139   Thumb Code     0  __scatter.o(!!!scatter)
    __scatterload_rt2                        0x08000139   Thumb Code    44  __scatter.o(!!!scatter)
    __scatterload_rt2_thumb_only             0x08000139   Thumb Code     0  __scatter.o(!!!scatter)
    __scatterload_null                       0x08000147   Thumb Code     0  __scatter.o(!!!scatter)
    __decompress                             0x0800016d   Thumb Code    90  __dczerorl2.o(!!dczerorl2)
    __decompress1                            0x0800016d   Thumb Code     0  __dczerorl2.o(!!dczerorl2)
    __scatterload_zeroinit                   0x080001c9   Thumb Code    28  __scatter_zi.o(!!handler_zi)
    _printf_ll                               0x080001e5   Thumb Code     0  _printf_ll.o(.ARM.Collect$$_printf_percent$$00000007)
    _printf_percent                          0x080001e5   Thumb Code     0  _printf_percent.o(.ARM.Collect$$_printf_percent$$00000000)
    _printf_d                                0x080001ef   Thumb Code     0  _printf_d.o(.ARM.Collect$$_printf_percent$$00000009)
    _printf_u                                0x080001f5   Thumb Code     0  _printf_u.o(.ARM.Collect$$_printf_percent$$0000000A)
    _printf_x                                0x080001fb   Thumb Code     0  _printf_x.o(.ARM.Collect$$_printf_percent$$0000000C)
    _printf_lld                              0x08000201   Thumb Code     0  _printf_lld.o(.ARM.Collect$$_printf_percent$$0000000E)
    _printf_c                                0x08000207   Thumb Code     0  _printf_c.o(.ARM.Collect$$_printf_percent$$00000013)
    _printf_s                                0x0800020d   Thumb Code     0  _printf_s.o(.ARM.Collect$$_printf_percent$$00000014)
    _printf_percent_end                      0x08000213   Thumb Code     0  _printf_percent_end.o(.ARM.Collect$$_printf_percent$$00000017)
    __rt_lib_init                            0x08000217   Thumb Code     0  libinit.o(.ARM.Collect$$libinit$$00000000)
    __rt_lib_init_alloca_1                   0x08000219   Thumb Code     0  libinit2.o(.ARM.Collect$$libinit$$0000002E)
    __rt_lib_init_argv_1                     0x08000219   Thumb Code     0  libinit2.o(.ARM.Collect$$libinit$$0000002C)
    __rt_lib_init_atexit_1                   0x08000219   Thumb Code     0  libinit2.o(.ARM.Collect$$libinit$$0000001B)
    __rt_lib_init_clock_1                    0x08000219   Thumb Code     0  libinit2.o(.ARM.Collect$$libinit$$00000021)
    __rt_lib_init_cpp_1                      0x08000219   Thumb Code     0  libinit2.o(.ARM.Collect$$libinit$$00000032)
    __rt_lib_init_exceptions_1               0x08000219   Thumb Code     0  libinit2.o(.ARM.Collect$$libinit$$00000030)
    __rt_lib_init_fp_1                       0x08000219   Thumb Code     0  libinit2.o(.ARM.Collect$$libinit$$00000002)
    __rt_lib_init_fp_trap_1                  0x08000219   Thumb Code     0  libinit2.o(.ARM.Collect$$libinit$$0000001F)
    __rt_lib_init_getenv_1                   0x08000219   Thumb Code     0  libinit2.o(.ARM.Collect$$libinit$$00000023)
    __rt_lib_init_heap_1                     0x08000219   Thumb Code     0  libinit2.o(.ARM.Collect$$libinit$$0000000A)
    __rt_lib_init_lc_collate_1               0x08000219   Thumb Code     0  libinit2.o(.ARM.Collect$$libinit$$00000011)
    __rt_lib_init_lc_ctype_1                 0x08000219   Thumb Code     0  libinit2.o(.ARM.Collect$$libinit$$00000013)
    __rt_lib_init_lc_monetary_1              0x08000219   Thumb Code     0  libinit2.o(.ARM.Collect$$libinit$$00000015)
    __rt_lib_init_lc_numeric_1               0x08000219   Thumb Code     0  libinit2.o(.ARM.Collect$$libinit$$00000017)
    __rt_lib_init_lc_time_1                  0x08000219   Thumb Code     0  libinit2.o(.ARM.Collect$$libinit$$00000019)
    __rt_lib_init_preinit_1                  0x08000219   Thumb Code     0  libinit2.o(.ARM.Collect$$libinit$$00000004)
    __rt_lib_init_rand_1                     0x08000219   Thumb Code     0  libinit2.o(.ARM.Collect$$libinit$$0000000E)
    __rt_lib_init_return                     0x08000219   Thumb Code     0  libinit2.o(.ARM.Collect$$libinit$$00000033)
    __rt_lib_init_signal_1                   0x08000219   Thumb Code     0  libinit2.o(.ARM.Collect$$libinit$$0000001D)
    __rt_lib_init_stdio_1                    0x08000219   Thumb Code     0  libinit2.o(.ARM.Collect$$libinit$$00000025)
    __rt_lib_init_user_alloc_1               0x08000219   Thumb Code     0  libinit2.o(.ARM.Collect$$libinit$$0000000C)
    __rt_lib_shutdown                        0x0800021b   Thumb Code     0  libshutdown.o(.ARM.Collect$$libshutdown$$00000000)
    __rt_lib_shutdown_cpp_1                  0x0800021d   Thumb Code     0  libshutdown2.o(.ARM.Collect$$libshutdown$$00000004)
    __rt_lib_shutdown_fini_1                 0x0800021d   Thumb Code     0  libshutdown2.o(.ARM.Collect$$libshutdown$$00000002)
    __rt_lib_shutdown_fp_trap_1              0x0800021d   Thumb Code     0  libshutdown2.o(.ARM.Collect$$libshutdown$$00000009)
    __rt_lib_shutdown_heap_1                 0x0800021d   Thumb Code     0  libshutdown2.o(.ARM.Collect$$libshutdown$$00000011)
    __rt_lib_shutdown_return                 0x0800021d   Thumb Code     0  libshutdown2.o(.ARM.Collect$$libshutdown$$00000012)
    __rt_lib_shutdown_signal_1               0x0800021d   Thumb Code     0  libshutdown2.o(.ARM.Collect$$libshutdown$$0000000C)
    __rt_lib_shutdown_stdio_1                0x0800021d   Thumb Code     0  libshutdown2.o(.ARM.Collect$$libshutdown$$00000006)
    __rt_lib_shutdown_user_alloc_1           0x0800021d   Thumb Code     0  libshutdown2.o(.ARM.Collect$$libshutdown$$0000000E)
    __rt_entry                               0x0800021f   Thumb Code     0  __rtentry.o(.ARM.Collect$$rtentry$$00000000)
    __rt_entry_presh_1                       0x0800021f   Thumb Code     0  __rtentry2.o(.ARM.Collect$$rtentry$$00000002)
    __rt_entry_sh                            0x0800021f   Thumb Code     0  __rtentry4.o(.ARM.Collect$$rtentry$$00000004)
    __rt_entry_li                            0x08000225   Thumb Code     0  __rtentry2.o(.ARM.Collect$$rtentry$$0000000A)
    __rt_entry_postsh_1                      0x08000225   Thumb Code     0  __rtentry2.o(.ARM.Collect$$rtentry$$00000009)
    __rt_entry_main                          0x08000229   Thumb Code     0  __rtentry2.o(.ARM.Collect$$rtentry$$0000000D)
    __rt_entry_postli_1                      0x08000229   Thumb Code     0  __rtentry2.o(.ARM.Collect$$rtentry$$0000000C)
    __rt_exit                                0x08000231   Thumb Code     0  rtexit.o(.ARM.Collect$$rtexit$$00000000)
    __rt_exit_ls                             0x08000233   Thumb Code     0  rtexit2.o(.ARM.Collect$$rtexit$$00000003)
    __rt_exit_prels_1                        0x08000233   Thumb Code     0  rtexit2.o(.ARM.Collect$$rtexit$$00000002)
    __rt_exit_exit                           0x08000237   Thumb Code     0  rtexit2.o(.ARM.Collect$$rtexit$$00000004)
    Reset_Handler                            0x0800023d   Thumb Code     4  startup_stm32f103xe.o(.text)
    NMI_Handler                              0x08000241   Thumb Code     2  startup_stm32f103xe.o(.text)
    HardFault_Handler                        0x08000243   Thumb Code     2  startup_stm32f103xe.o(.text)
    MemManage_Handler                        0x08000245   Thumb Code     2  startup_stm32f103xe.o(.text)
    BusFault_Handler                         0x08000247   Thumb Code     2  startup_stm32f103xe.o(.text)
    UsageFault_Handler                       0x08000249   Thumb Code     2  startup_stm32f103xe.o(.text)
    SVC_Handler                              0x0800024b   Thumb Code     2  startup_stm32f103xe.o(.text)
    DebugMon_Handler                         0x0800024d   Thumb Code     2  startup_stm32f103xe.o(.text)
    PendSV_Handler                           0x0800024f   Thumb Code     2  startup_stm32f103xe.o(.text)
    SysTick_Handler                          0x08000251   Thumb Code     2  startup_stm32f103xe.o(.text)
    ADC1_2_IRQHandler                        0x08000253   Thumb Code     0  startup_stm32f103xe.o(.text)
    ADC3_IRQHandler                          0x08000253   Thumb Code     0  startup_stm32f103xe.o(.text)
    CAN1_RX1_IRQHandler                      0x08000253   Thumb Code     0  startup_stm32f103xe.o(.text)
    CAN1_SCE_IRQHandler                      0x08000253   Thumb Code     0  startup_stm32f103xe.o(.text)
    DMA1_Channel1_IRQHandler                 0x08000253   Thumb Code     0  startup_stm32f103xe.o(.text)
    DMA1_Channel2_IRQHandler                 0x08000253   Thumb Code     0  startup_stm32f103xe.o(.text)
    DMA1_Channel3_IRQHandler                 0x08000253   Thumb Code     0  startup_stm32f103xe.o(.text)
    DMA1_Channel4_IRQHandler                 0x08000253   Thumb Code     0  startup_stm32f103xe.o(.text)
    DMA1_Channel5_IRQHandler                 0x08000253   Thumb Code     0  startup_stm32f103xe.o(.text)
    DMA1_Channel6_IRQHandler                 0x08000253   Thumb Code     0  startup_stm32f103xe.o(.text)
    DMA1_Channel7_IRQHandler                 0x08000253   Thumb Code     0  startup_stm32f103xe.o(.text)
    DMA2_Channel1_IRQHandler                 0x08000253   Thumb Code     0  startup_stm32f103xe.o(.text)
    DMA2_Channel2_IRQHandler                 0x08000253   Thumb Code     0  startup_stm32f103xe.o(.text)
    DMA2_Channel3_IRQHandler                 0x08000253   Thumb Code     0  startup_stm32f103xe.o(.text)
    DMA2_Channel4_5_IRQHandler               0x08000253   Thumb Code     0  startup_stm32f103xe.o(.text)
    EXTI0_IRQHandler                         0x08000253   Thumb Code     0  startup_stm32f103xe.o(.text)
    EXTI15_10_IRQHandler                     0x08000253   Thumb Code     0  startup_stm32f103xe.o(.text)
    EXTI1_IRQHandler                         0x08000253   Thumb Code     0  startup_stm32f103xe.o(.text)
    EXTI2_IRQHandler                         0x08000253   Thumb Code     0  startup_stm32f103xe.o(.text)
    EXTI3_IRQHandler                         0x08000253   Thumb Code     0  startup_stm32f103xe.o(.text)
    EXTI4_IRQHandler                         0x08000253   Thumb Code     0  startup_stm32f103xe.o(.text)
    EXTI9_5_IRQHandler                       0x08000253   Thumb Code     0  startup_stm32f103xe.o(.text)
    FLASH_IRQHandler                         0x08000253   Thumb Code     0  startup_stm32f103xe.o(.text)
    FSMC_IRQHandler                          0x08000253   Thumb Code     0  startup_stm32f103xe.o(.text)
    I2C1_ER_IRQHandler                       0x08000253   Thumb Code     0  startup_stm32f103xe.o(.text)
    I2C1_EV_IRQHandler                       0x08000253   Thumb Code     0  startup_stm32f103xe.o(.text)
    I2C2_ER_IRQHandler                       0x08000253   Thumb Code     0  startup_stm32f103xe.o(.text)
    I2C2_EV_IRQHandler                       0x08000253   Thumb Code     0  startup_stm32f103xe.o(.text)
    PVD_IRQHandler                           0x08000253   Thumb Code     0  startup_stm32f103xe.o(.text)
    RCC_IRQHandler                           0x08000253   Thumb Code     0  startup_stm32f103xe.o(.text)
    RTC_Alarm_IRQHandler                     0x08000253   Thumb Code     0  startup_stm32f103xe.o(.text)
    RTC_IRQHandler                           0x08000253   Thumb Code     0  startup_stm32f103xe.o(.text)
    SDIO_IRQHandler                          0x08000253   Thumb Code     0  startup_stm32f103xe.o(.text)
    SPI1_IRQHandler                          0x08000253   Thumb Code     0  startup_stm32f103xe.o(.text)
    SPI2_IRQHandler                          0x08000253   Thumb Code     0  startup_stm32f103xe.o(.text)
    SPI3_IRQHandler                          0x08000253   Thumb Code     0  startup_stm32f103xe.o(.text)
    TAMPER_IRQHandler                        0x08000253   Thumb Code     0  startup_stm32f103xe.o(.text)
    TIM1_BRK_IRQHandler                      0x08000253   Thumb Code     0  startup_stm32f103xe.o(.text)
    TIM1_CC_IRQHandler                       0x08000253   Thumb Code     0  startup_stm32f103xe.o(.text)
    TIM1_TRG_COM_IRQHandler                  0x08000253   Thumb Code     0  startup_stm32f103xe.o(.text)
    TIM1_UP_IRQHandler                       0x08000253   Thumb Code     0  startup_stm32f103xe.o(.text)
    TIM2_IRQHandler                          0x08000253   Thumb Code     0  startup_stm32f103xe.o(.text)
    TIM3_IRQHandler                          0x08000253   Thumb Code     0  startup_stm32f103xe.o(.text)
    TIM5_IRQHandler                          0x08000253   Thumb Code     0  startup_stm32f103xe.o(.text)
    TIM6_IRQHandler                          0x08000253   Thumb Code     0  startup_stm32f103xe.o(.text)
    TIM7_IRQHandler                          0x08000253   Thumb Code     0  startup_stm32f103xe.o(.text)
    TIM8_BRK_IRQHandler                      0x08000253   Thumb Code     0  startup_stm32f103xe.o(.text)
    TIM8_CC_IRQHandler                       0x08000253   Thumb Code     0  startup_stm32f103xe.o(.text)
    TIM8_TRG_COM_IRQHandler                  0x08000253   Thumb Code     0  startup_stm32f103xe.o(.text)
    TIM8_UP_IRQHandler                       0x08000253   Thumb Code     0  startup_stm32f103xe.o(.text)
    UART4_IRQHandler                         0x08000253   Thumb Code     0  startup_stm32f103xe.o(.text)
    UART5_IRQHandler                         0x08000253   Thumb Code     0  startup_stm32f103xe.o(.text)
    USART2_IRQHandler                        0x08000253   Thumb Code     0  startup_stm32f103xe.o(.text)
    USART3_IRQHandler                        0x08000253   Thumb Code     0  startup_stm32f103xe.o(.text)
    USBWakeUp_IRQHandler                     0x08000253   Thumb Code     0  startup_stm32f103xe.o(.text)
    USB_HP_CAN1_TX_IRQHandler                0x08000253   Thumb Code     0  startup_stm32f103xe.o(.text)
    USB_LP_CAN1_RX0_IRQHandler               0x08000253   Thumb Code     0  startup_stm32f103xe.o(.text)
    WWDG_IRQHandler                          0x08000253   Thumb Code     0  startup_stm32f103xe.o(.text)
    __user_initial_stackheap                 0x08000255   Thumb Code     0  startup_stm32f103xe.o(.text)
    __use_no_semihosting                     0x08000275   Thumb Code     2  use_no_semi_2.o(.text)
    __aeabi_uldivmod                         0x08000277   Thumb Code     0  lludivv7m.o(.text)
    _ll_udiv                                 0x08000277   Thumb Code   238  lludivv7m.o(.text)
    __aeabi_ldivmod                          0x08000365   Thumb Code     0  llsdiv.o(.text)
    _ll_sdiv                                 0x08000365   Thumb Code    72  llsdiv.o(.text)
    __2printf                                0x080003ad   Thumb Code    20  noretval__2printf.o(.text)
    _printf_pre_padding                      0x080003c5   Thumb Code    44  _printf_pad.o(.text)
    _printf_post_padding                     0x080003f1   Thumb Code    34  _printf_pad.o(.text)
    _printf_str                              0x08000413   Thumb Code    82  _printf_str.o(.text)
    _printf_int_dec                          0x08000465   Thumb Code   104  _printf_dec.o(.text)
    _printf_longlong_dec                     0x080004dd   Thumb Code   108  _printf_longlong_dec.o(.text)
    _printf_int_hex                          0x08000559   Thumb Code    84  _printf_hex_int.o(.text)
    _printf_longlong_hex                     0x08000559   Thumb Code     0  _printf_hex_int.o(.text)
    __printf                                 0x080005b1   Thumb Code   388  __printf_flags_ss_wp.o(.text)
    strchr                                   0x08000739   Thumb Code    20  strchr.o(.text)
    memcmp                                   0x0800074d   Thumb Code    88  memcmp.o(.text)
    __aeabi_memcpy                           0x080007a5   Thumb Code     0  rt_memcpy_v6.o(.text)
    __rt_memcpy                              0x080007a5   Thumb Code   138  rt_memcpy_v6.o(.text)
    _memcpy_lastbytes                        0x0800080b   Thumb Code     0  rt_memcpy_v6.o(.text)
    __aeabi_memcpy4                          0x0800082f   Thumb Code     0  rt_memcpy_w.o(.text)
    __aeabi_memcpy8                          0x0800082f   Thumb Code     0  rt_memcpy_w.o(.text)
    __rt_memcpy_w                            0x0800082f   Thumb Code   100  rt_memcpy_w.o(.text)
    _memcpy_lastbytes_aligned                0x08000877   Thumb Code     0  rt_memcpy_w.o(.text)
    __aeabi_memset                           0x08000893   Thumb Code    16  aeabi_memset.o(.text)
    __aeabi_memclr                           0x080008a3   Thumb Code     0  rt_memclr.o(.text)
    __rt_memclr                              0x080008a3   Thumb Code    68  rt_memclr.o(.text)
    _memset                                  0x080008a7   Thumb Code     0  rt_memclr.o(.text)
    __aeabi_memclr4                          0x080008e7   Thumb Code     0  rt_memclr_w.o(.text)
    __aeabi_memclr8                          0x080008e7   Thumb Code     0  rt_memclr_w.o(.text)
    __rt_memclr_w                            0x080008e7   Thumb Code    78  rt_memclr_w.o(.text)
    _memset_w                                0x080008eb   Thumb Code     0  rt_memclr_w.o(.text)
    __use_two_region_memory                  0x08000935   Thumb Code     2  heapauxi.o(.text)
    __rt_heap_escrow$2region                 0x08000937   Thumb Code     2  heapauxi.o(.text)
    __rt_heap_expand$2region                 0x08000939   Thumb Code     2  heapauxi.o(.text)
    __semihosting$guard                      0x0800093b   Thumb Code     0  use_no_semi.o(.text)
    __use_no_semihosting_swi                 0x0800093b   Thumb Code     2  use_no_semi.o(.text)
    _ll_udiv10                               0x0800093d   Thumb Code   138  lludiv10.o(.text)
    _printf_int_common                       0x080009c7   Thumb Code   178  _printf_intcommon.o(.text)
    _printf_cs_common                        0x08000a79   Thumb Code    20  _printf_char.o(.text)
    _printf_char                             0x08000a8d   Thumb Code    16  _printf_char.o(.text)
    _printf_string                           0x08000a9d   Thumb Code     8  _printf_char.o(.text)
    _printf_char_file                        0x08000aa5   Thumb Code    32  _printf_char_file.o(.text)
    _printf_char_common                      0x08000ad3   Thumb Code    32  _printf_char_common.o(.text)
    ferror                                   0x08000af9   Thumb Code     8  ferror.o(.text)
    __user_setup_stackheap                   0x08000b01   Thumb Code    74  sys_stackheap_outer.o(.text)
    exit                                     0x08000b4b   Thumb Code    18  exit.o(.text)
    __user_libspace                          0x08000b5d   Thumb Code     8  libspace.o(.text)
    __user_perproc_libspace                  0x08000b5d   Thumb Code     0  libspace.o(.text)
    __user_perthread_libspace                0x08000b5d   Thumb Code     0  libspace.o(.text)
    TIM4_IRQHandler                          0x08000b65   Thumb Code    50  usmart_port.o(i.TIM4_IRQHandler)
    USART1_IRQHandler                        0x08000ba1   Thumb Code   118  usart.o(i.USART1_IRQHandler)
    _is_digit                                0x08000c25   Thumb Code    14  __printf_wp.o(i._is_digit)
    _sys_exit                                0x08000c33   Thumb Code     4  usart.o(i._sys_exit)
    delay_init                               0x08001569   Thumb Code    38  delay.o(i.delay_init)
    delay_ms                                 0x08001595   Thumb Code    18  delay.o(i.delay_ms)
    delay_us                                 0x080015a9   Thumb Code    68  delay.o(i.delay_us)
    dir_sdi                                  0x08001d55   Thumb Code   170  ff.o(i.dir_sdi)
    disk_initialize                          0x08001dff   Thumb Code    44  diskio.o(i.disk_initialize)
    disk_ioctl                               0x08001e2d   Thumb Code   170  diskio.o(i.disk_ioctl)
    disk_read                                0x08001edd   Thumb Code   126  diskio.o(i.disk_read)
    disk_status                              0x08001f5b   Thumb Code     6  diskio.o(i.disk_status)
    disk_write                               0x08001f61   Thumb Code   126  diskio.o(i.disk_write)
    exfuns_get_free                          0x08001fdf   Thumb Code    74  exfuns.o(i.exfuns_get_free)
    exfuns_init                              0x08002029   Thumb Code    64  exfuns.o(i.exfuns_init)
    f_close                                  0x0800206d   Thumb Code    38  ff.o(i.f_close)
    f_closedir                               0x08002093   Thumb Code    24  ff.o(i.f_closedir)
    f_getfree                                0x080020ab   Thumb Code   348  ff.o(i.f_getfree)
    f_getlabel                               0x08002207   Thumb Code   316  ff.o(i.f_getlabel)
    f_gets                                   0x08002343   Thumb Code    80  ff.o(i.f_gets)
    f_lseek                                  0x08002393   Thumb Code  1110  ff.o(i.f_lseek)
    f_mkdir                                  0x080027e9   Thumb Code   418  ff.o(i.f_mkdir)
    f_mkfs                                   0x0800298d   Thumb Code  3514  ff.o(i.f_mkfs)
    f_mount                                  0x08003789   Thumb Code    80  ff.o(i.f_mount)
    f_open                                   0x080037dd   Thumb Code   786  ff.o(i.f_open)
    f_opendir                                0x08003aef   Thumb Code   184  ff.o(i.f_opendir)
    f_putc                                   0x08003ba7   Thumb Code    34  ff.o(i.f_putc)
    f_puts                                   0x08003bc9   Thumb Code    44  ff.o(i.f_puts)
    f_read                                   0x08003bf5   Thumb Code   552  ff.o(i.f_read)
    f_readdir                                0x08003e1d   Thumb Code   112  ff.o(i.f_readdir)
    f_rename                                 0x08003e8d   Thumb Code   516  ff.o(i.f_rename)
    f_setlabel                               0x08004091   Thumb Code   486  ff.o(i.f_setlabel)
    f_sync                                   0x0800427d   Thumb Code   424  ff.o(i.f_sync)
    f_unlink                                 0x08004425   Thumb Code   252  ff.o(i.f_unlink)
    f_write                                  0x08004521   Thumb Code   644  ff.o(i.f_write)
    ff_memalloc                              0x080047a5   Thumb Code    14  ffsystem.o(i.ff_memalloc)
    ff_memfree                               0x080047b3   Thumb Code    14  ffsystem.o(i.ff_memfree)
    ff_oem2uni                               0x080047c1   Thumb Code   100  ffunicode.o(i.ff_oem2uni)
    ff_uni2oem                               0x08004829   Thumb Code   112  ffunicode.o(i.ff_uni2oem)
    ff_wtoupper                              0x0800489d   Thumb Code   166  ffunicode.o(i.ff_wtoupper)
    fputc                                    0x08004ba9   Thumb Code    24  usart.o(i.fputc)
    get_fattime                              0x08004e2d   Thumb Code     4  ffsystem.o(i.get_fattime)
    key_init                                 0x0800512d   Thumb Code   134  key.o(i.key_init)
    lcd_clear                                0x080051c1   Thumb Code    42  lcd.o(i.lcd_clear)
    lcd_display_dir                          0x080051f5   Thumb Code   360  lcd.o(i.lcd_display_dir)
    lcd_draw_point                           0x08005361   Thumb Code    26  lcd.o(i.lcd_draw_point)
    lcd_ex_ili9341_reginit                   0x08005381   Thumb Code   556  lcd.o(i.lcd_ex_ili9341_reginit)
    lcd_ex_ili9806_reginit                   0x080055ad   Thumb Code   832  lcd.o(i.lcd_ex_ili9806_reginit)
    lcd_ex_nt35310_reginit                   0x080058ed   Thumb Code  3826  lcd.o(i.lcd_ex_nt35310_reginit)
    lcd_ex_nt35510_reginit                   0x080067df   Thumb Code  3950  lcd.o(i.lcd_ex_nt35510_reginit)
    lcd_ex_ssd1963_reginit                   0x0800774d   Thumb Code   366  lcd.o(i.lcd_ex_ssd1963_reginit)
    lcd_ex_st7789_reginit                    0x080078bb   Thumb Code   424  lcd.o(i.lcd_ex_st7789_reginit)
    lcd_ex_st7796_reginit                    0x08007a63   Thumb Code   454  lcd.o(i.lcd_ex_st7796_reginit)
    lcd_fill                                 0x08007c29   Thumb Code    80  lcd.o(i.lcd_fill)
    lcd_init                                 0x08007c7d   Thumb Code  1154  lcd.o(i.lcd_init)
    lcd_scan_dir                             0x08008145   Thumb Code   568  lcd.o(i.lcd_scan_dir)
    lcd_set_cursor                           0x08008381   Thumb Code   282  lcd.o(i.lcd_set_cursor)
    lcd_show_char                            0x080084a1   Thumb Code   294  lcd.o(i.lcd_show_char)
    lcd_show_num                             0x080085e1   Thumb Code   152  lcd.o(i.lcd_show_num)
    lcd_show_string                          0x08008679   Thumb Code   106  lcd.o(i.lcd_show_string)
    lcd_ssd_backlight_set                    0x080086e5   Thumb Code    80  lcd.o(i.lcd_ssd_backlight_set)
    lcd_wr_data                              0x08008739   Thumb Code    18  lcd.o(i.lcd_wr_data)
    lcd_wr_regno                             0x08008751   Thumb Code    18  lcd.o(i.lcd_wr_regno)
    lcd_write_ram_prepare                    0x08008769   Thumb Code    10  lcd.o(i.lcd_write_ram_prepare)
    lcd_write_reg                            0x0800877d   Thumb Code    10  lcd.o(i.lcd_write_reg)
    led_init                                 0x08008839   Thumb Code    90  led.o(i.led_init)
    main                                     0x080089f1   Thumb Code   664  main.o(i.main)
    mf_close                                 0x08008dad   Thumb Code    14  fattester.o(i.mf_close)
    mf_closedir                              0x08008dc1   Thumb Code    10  fattester.o(i.mf_closedir)
    mf_fmkfs                                 0x08008dd1   Thumb Code    40  fattester.o(i.mf_fmkfs)
    mf_free                                  0x08008dfd   Thumb Code    26  fattester.o(i.mf_free)
    mf_getlabel                              0x08008e1d   Thumb Code    58  fattester.o(i.mf_getlabel)
    mf_gets                                  0x08008ea1   Thumb Code    38  fattester.o(i.mf_gets)
    mf_init                                  0x08008ee9   Thumb Code    58  fattester.o(i.mf_init)
    mf_lseek                                 0x08008f29   Thumb Code    18  fattester.o(i.mf_lseek)
    mf_mkdir                                 0x08008f41   Thumb Code    12  fattester.o(i.mf_mkdir)
    mf_mount                                 0x08008f4d   Thumb Code    20  fattester.o(i.mf_mount)
    mf_open                                  0x08008f65   Thumb Code    24  fattester.o(i.mf_open)
    mf_opendir                               0x08008f81   Thumb Code    14  fattester.o(i.mf_opendir)
    mf_putc                                  0x08008f95   Thumb Code    18  fattester.o(i.mf_putc)
    mf_puts                                  0x08008fad   Thumb Code    18  fattester.o(i.mf_puts)
    mf_read                                  0x08008fc5   Thumb Code   224  fattester.o(i.mf_read)
    mf_readdir                               0x08009121   Thumb Code   216  fattester.o(i.mf_readdir)
    mf_rename                                0x08009395   Thumb Code    16  fattester.o(i.mf_rename)
    mf_scan_files                            0x080093a5   Thumb Code    74  fattester.o(i.mf_scan_files)
    mf_setlabel                              0x08009409   Thumb Code    34  fattester.o(i.mf_setlabel)
    mf_showfree                              0x08009465   Thumb Code    88  fattester.o(i.mf_showfree)
    mf_size                                  0x0800950d   Thumb Code     8  fattester.o(i.mf_size)
    mf_tell                                  0x08009519   Thumb Code     8  fattester.o(i.mf_tell)
    mf_unlink                                0x08009525   Thumb Code    12  fattester.o(i.mf_unlink)
    mf_write                                 0x08009531   Thumb Code    70  fattester.o(i.mf_write)
    my_mem_init                              0x08009b09   Thumb Code    38  malloc.o(i.my_mem_init)
    my_mem_perused                           0x08009be1   Thumb Code    56  malloc.o(i.my_mem_perused)
    my_mem_set                               0x08009c21   Thumb Code    20  malloc.o(i.my_mem_set)
    myfree                                   0x08009c35   Thumb Code    30  malloc.o(i.myfree)
    mymalloc                                 0x08009c59   Thumb Code    34  malloc.o(i.mymalloc)
    norflash_erase_sector                    0x08009c81   Thumb Code    54  norflash.o(i.norflash_erase_sector)
    norflash_init                            0x08009cbd   Thumb Code   138  norflash.o(i.norflash_init)
    norflash_read                            0x08009d55   Thumb Code    68  norflash.o(i.norflash_read)
    norflash_read_id                         0x08009d9d   Thumb Code    68  norflash.o(i.norflash_read_id)
    norflash_read_sr                         0x08009de5   Thumb Code    80  norflash.o(i.norflash_read_sr)
    norflash_write                           0x08009e81   Thumb Code   180  norflash.o(i.norflash_write)
    norflash_write_enable                    0x08009f39   Thumb Code    32  norflash.o(i.norflash_write_enable)
    norflash_write_sr                        0x08009ff5   Thumb Code    76  norflash.o(i.norflash_write_sr)
    read_addr                                0x0800a359   Thumb Code     6  usmart.o(i.read_addr)
    sd_init                                  0x0800a4a9   Thumb Code   342  sdio_sdcard.o(i.sd_init)
    sd_read_disk                             0x0800a61d   Thumb Code   128  sdio_sdcard.o(i.sd_read_disk)
    sd_write_disk                            0x0800a6a5   Thumb Code   130  sdio_sdcard.o(i.sd_write_disk)
    spi2_init                                0x0800b6d1   Thumb Code   174  spi.o(i.spi2_init)
    spi2_read_write_byte                     0x0800b78d   Thumb Code    46  spi.o(i.spi2_read_write_byte)
    spi2_set_speed                           0x0800b7c1   Thumb Code    48  spi.o(i.spi2_set_speed)
    sram_init                                0x0800b7f5   Thumb Code   338  sram.o(i.sram_init)
    sys_clock_set                            0x0800bb71   Thumb Code   164  sys.o(i.sys_clock_set)
    sys_gpio_pin_set                         0x0800bc1d   Thumb Code    24  sys.o(i.sys_gpio_pin_set)
    sys_gpio_set                             0x0800bc35   Thumb Code   234  sys.o(i.sys_gpio_set)
    sys_intx_disable                         0x0800bd1f   Thumb Code     4  sys.o(i.sys_intx_disable)
    sys_intx_enable                          0x0800bd23   Thumb Code     4  sys.o(i.sys_intx_enable)
    sys_nvic_init                            0x0800bd29   Thumb Code   116  sys.o(i.sys_nvic_init)
    sys_nvic_set_vector_table                0x0800bdc9   Thumb Code    12  sys.o(i.sys_nvic_set_vector_table)
    sys_stm32_clock_init                     0x0800bdd9   Thumb Code   100  sys.o(i.sys_stm32_clock_init)
    usart_init                               0x0800be95   Thumb Code   180  usart.o(i.usart_init)
    usmart_cmd_rec                           0x0800bf59   Thumb Code   170  usmart.o(i.usmart_cmd_rec)
    usmart_exe                               0x0800c009   Thumb Code   632  usmart.o(i.usmart_exe)
    usmart_get_aparm                         0x0800c2dd   Thumb Code   212  usmart_str.o(i.usmart_get_aparm)
    usmart_get_cmdname                       0x0800c3b1   Thumb Code    54  usmart_str.o(i.usmart_get_cmdname)
    usmart_get_fname                         0x0800c3e9   Thumb Code   440  usmart_str.o(i.usmart_get_fname)
    usmart_get_fparam                        0x0800c5a9   Thumb Code   262  usmart_str.o(i.usmart_get_fparam)
    usmart_get_input_string                  0x0800c6b5   Thumb Code    30  usmart_port.o(i.usmart_get_input_string)
    usmart_get_parmpos                       0x0800c6dd   Thumb Code    26  usmart_str.o(i.usmart_get_parmpos)
    usmart_init                              0x0800c6fd   Thumb Code    18  usmart.o(i.usmart_init)
    usmart_pow                               0x0800c715   Thumb Code    22  usmart_str.o(i.usmart_pow)
    usmart_scan                              0x0800c72d   Thumb Code   106  usmart.o(i.usmart_scan)
    usmart_search_nextc                      0x0800c7d5   Thumb Code    22  usmart_str.o(i.usmart_search_nextc)
    usmart_str2num                           0x0800c7eb   Thumb Code   262  usmart_str.o(i.usmart_str2num)
    usmart_strcmp                            0x0800c8f1   Thumb Code    34  usmart_str.o(i.usmart_strcmp)
    usmart_strcopy                           0x0800c913   Thumb Code    22  usmart_str.o(i.usmart_strcopy)
    usmart_strlen                            0x0800c929   Thumb Code    24  usmart_str.o(i.usmart_strlen)
    usmart_sys_cmd_exe                       0x0800c941   Thumb Code  1570  usmart.o(i.usmart_sys_cmd_exe)
    usmart_timx_get_time                     0x0800d035   Thumb Code    56  usmart_port.o(i.usmart_timx_get_time)
    usmart_timx_init                         0x0800d075   Thumb Code    94  usmart_port.o(i.usmart_timx_init)
    usmart_timx_reset_time                   0x0800d0dd   Thumb Code    38  usmart_port.o(i.usmart_timx_reset_time)
    write_addr                               0x0800d149   Thumb Code     4  usmart.o(i.write_addr)
    __aeabi_d2uiz                            0x0800d1ed   Thumb Code     0  dfixu.o(x$fpl$dfixu)
    _dfixu                                   0x0800d1ed   Thumb Code    90  dfixu.o(x$fpl$dfixu)
    __aeabi_ui2d                             0x0800d247   Thumb Code     0  dflt_clz.o(x$fpl$dfltu)
    _dfltu                                   0x0800d247   Thumb Code    38  dflt_clz.o(x$fpl$dfltu)
    __aeabi_dmul                             0x0800d26d   Thumb Code     0  dmul.o(x$fpl$dmul)
    _dmul                                    0x0800d26d   Thumb Code   332  dmul.o(x$fpl$dmul)
    __fpl_dnaninf                            0x0800d3c1   Thumb Code   156  dnaninf.o(x$fpl$dnaninf)
    __fpl_dretinf                            0x0800d45d   Thumb Code    12  dretinf.o(x$fpl$dretinf)
    __I$use$fp                               0x0800d468   Number         0  usenofp.o(x$fpl$usenofp)
    asc2_1206                                0x0800d468   Data        1140  lcd.o(.constdata)
    asc2_1608                                0x0800d8dc   Data        1520  lcd.o(.constdata)
    asc2_2412                                0x0800decc   Data        3420  lcd.o(.constdata)
    asc2_3216                                0x0800ec28   Data        6080  lcd.o(.constdata)
    memtblsize                               0x080103e8   Data           8  malloc.o(.constdata)
    memblksize                               0x080103f0   Data           8  malloc.o(.constdata)
    memsize                                  0x080103f8   Data           8  malloc.o(.constdata)
    Region$$Table$$Base                      0x0803b410   Number         0  anon$$obj.o(Region$$Table)
    Region$$Table$$Limit                     0x0803b430   Number         0  anon$$obj.o(Region$$Table)
    __stdout                                 0x20000004   Data           4  usart.o(.data)
    g_usart_rx_sta                           0x20000008   Data           2  usart.o(.data)
    g_point_color                            0x2000000c   Data           4  lcd.o(.data)
    g_back_color                             0x20000010   Data           4  lcd.o(.data)
    g_norflash_type                          0x2000001c   Data           2  norflash.o(.data)
    mallco_dev                               0x20000020   Data          28  malloc.o(.data)
    fs                                       0x20000048   Data           8  exfuns.o(.data)
    sys_cmd_tab                              0x20000050   Data          28  usmart.o(.data)
    usmart_nametab                           0x2000006c   Data         208  usmart_config.o(.data)
    usmart_dev                               0x2000013c   Data         244  usmart_config.o(.data)
    g_usart_rx_buf                           0x20000230   Data         200  usart.o(.bss)
    lcddev                                   0x200002f8   Data          14  lcd.o(.bss)
    g_sd_card_info                           0x20000328   Data          88  sdio_sdcard.o(.bss)
    g_sd_data_buffer                         0x20000380   Data         512  sdio_sdcard.o(.bss)
    g_norflash_buf                           0x20000580   Data        4096  norflash.o(.bss)
    fattester                                0x2000bf80   Data         384  fattester.o(.bss)
    __libspace_start                         0x2000c100   Data          96  libspace.o(.bss)
    __temporary_stack_top$libspace           0x2000c160   Data           0  libspace.o(.bss)



==============================================================================

Memory Map of the image

  Image Entry point : 0x08000131

  Load Region LR_IROM1 (Base: 0x08000000, Size: 0x0003b660, Max: 0x00080000, ABSOLUTE, COMPRESSED[0x0003b528])

    Execution Region ER_IROM1 (Exec base: 0x08000000, Load base: 0x08000000, Size: 0x0003b430, Max: 0x00080000, ABSOLUTE)

    Exec Addr    Load Addr    Size         Type   Attr      Idx    E Section Name        Object

    0x08000000   0x08000000   0x00000130   Data   RO            3    RESET               startup_stm32f103xe.o
    0x08000130   0x08000130   0x00000008   Code   RO         2201  * !!!main             c_w.l(__main.o)
    0x08000138   0x08000138   0x00000034   Code   RO         2400    !!!scatter          c_w.l(__scatter.o)
    0x0800016c   0x0800016c   0x0000005a   Code   RO         2398    !!dczerorl2         c_w.l(__dczerorl2.o)
    0x080001c6   0x080001c6   0x00000002   PAD
    0x080001c8   0x080001c8   0x0000001c   Code   RO         2402    !!handler_zi        c_w.l(__scatter_zi.o)
    0x080001e4   0x080001e4   0x00000000   Code   RO         2175    .ARM.Collect$$_printf_percent$$00000000  c_w.l(_printf_percent.o)
    0x080001e4   0x080001e4   0x0000000a   Code   RO         2231    .ARM.Collect$$_printf_percent$$00000007  c_w.l(_printf_ll.o)
    0x080001ee   0x080001ee   0x00000006   Code   RO         2173    .ARM.Collect$$_printf_percent$$00000009  c_w.l(_printf_d.o)
    0x080001f4   0x080001f4   0x00000006   Code   RO         2174    .ARM.Collect$$_printf_percent$$0000000A  c_w.l(_printf_u.o)
    0x080001fa   0x080001fa   0x00000006   Code   RO         2172    .ARM.Collect$$_printf_percent$$0000000C  c_w.l(_printf_x.o)
    0x08000200   0x08000200   0x00000006   Code   RO         2176    .ARM.Collect$$_printf_percent$$0000000E  c_w.l(_printf_lld.o)
    0x08000206   0x08000206   0x00000006   Code   RO         2170    .ARM.Collect$$_printf_percent$$00000013  c_w.l(_printf_c.o)
    0x0800020c   0x0800020c   0x00000006   Code   RO         2171    .ARM.Collect$$_printf_percent$$00000014  c_w.l(_printf_s.o)
    0x08000212   0x08000212   0x00000004   Code   RO         2230    .ARM.Collect$$_printf_percent$$00000017  c_w.l(_printf_percent_end.o)
    0x08000216   0x08000216   0x00000002   Code   RO         2275    .ARM.Collect$$libinit$$00000000  c_w.l(libinit.o)
    0x08000218   0x08000218   0x00000000   Code   RO         2288    .ARM.Collect$$libinit$$00000002  c_w.l(libinit2.o)
    0x08000218   0x08000218   0x00000000   Code   RO         2290    .ARM.Collect$$libinit$$00000004  c_w.l(libinit2.o)
    0x08000218   0x08000218   0x00000000   Code   RO         2293    .ARM.Collect$$libinit$$0000000A  c_w.l(libinit2.o)
    0x08000218   0x08000218   0x00000000   Code   RO         2295    .ARM.Collect$$libinit$$0000000C  c_w.l(libinit2.o)
    0x08000218   0x08000218   0x00000000   Code   RO         2297    .ARM.Collect$$libinit$$0000000E  c_w.l(libinit2.o)
    0x08000218   0x08000218   0x00000000   Code   RO         2300    .ARM.Collect$$libinit$$00000011  c_w.l(libinit2.o)
    0x08000218   0x08000218   0x00000000   Code   RO         2302    .ARM.Collect$$libinit$$00000013  c_w.l(libinit2.o)
    0x08000218   0x08000218   0x00000000   Code   RO         2304    .ARM.Collect$$libinit$$00000015  c_w.l(libinit2.o)
    0x08000218   0x08000218   0x00000000   Code   RO         2306    .ARM.Collect$$libinit$$00000017  c_w.l(libinit2.o)
    0x08000218   0x08000218   0x00000000   Code   RO         2308    .ARM.Collect$$libinit$$00000019  c_w.l(libinit2.o)
    0x08000218   0x08000218   0x00000000   Code   RO         2310    .ARM.Collect$$libinit$$0000001B  c_w.l(libinit2.o)
    0x08000218   0x08000218   0x00000000   Code   RO         2312    .ARM.Collect$$libinit$$0000001D  c_w.l(libinit2.o)
    0x08000218   0x08000218   0x00000000   Code   RO         2314    .ARM.Collect$$libinit$$0000001F  c_w.l(libinit2.o)
    0x08000218   0x08000218   0x00000000   Code   RO         2316    .ARM.Collect$$libinit$$00000021  c_w.l(libinit2.o)
    0x08000218   0x08000218   0x00000000   Code   RO         2318    .ARM.Collect$$libinit$$00000023  c_w.l(libinit2.o)
    0x08000218   0x08000218   0x00000000   Code   RO         2320    .ARM.Collect$$libinit$$00000025  c_w.l(libinit2.o)
    0x08000218   0x08000218   0x00000000   Code   RO         2324    .ARM.Collect$$libinit$$0000002C  c_w.l(libinit2.o)
    0x08000218   0x08000218   0x00000000   Code   RO         2326    .ARM.Collect$$libinit$$0000002E  c_w.l(libinit2.o)
    0x08000218   0x08000218   0x00000000   Code   RO         2328    .ARM.Collect$$libinit$$00000030  c_w.l(libinit2.o)
    0x08000218   0x08000218   0x00000000   Code   RO         2330    .ARM.Collect$$libinit$$00000032  c_w.l(libinit2.o)
    0x08000218   0x08000218   0x00000002   Code   RO         2331    .ARM.Collect$$libinit$$00000033  c_w.l(libinit2.o)
    0x0800021a   0x0800021a   0x00000002   Code   RO         2355    .ARM.Collect$$libshutdown$$00000000  c_w.l(libshutdown.o)
    0x0800021c   0x0800021c   0x00000000   Code   RO         2379    .ARM.Collect$$libshutdown$$00000002  c_w.l(libshutdown2.o)
    0x0800021c   0x0800021c   0x00000000   Code   RO         2381    .ARM.Collect$$libshutdown$$00000004  c_w.l(libshutdown2.o)
    0x0800021c   0x0800021c   0x00000000   Code   RO         2383    .ARM.Collect$$libshutdown$$00000006  c_w.l(libshutdown2.o)
    0x0800021c   0x0800021c   0x00000000   Code   RO         2386    .ARM.Collect$$libshutdown$$00000009  c_w.l(libshutdown2.o)
    0x0800021c   0x0800021c   0x00000000   Code   RO         2389    .ARM.Collect$$libshutdown$$0000000C  c_w.l(libshutdown2.o)
    0x0800021c   0x0800021c   0x00000000   Code   RO         2391    .ARM.Collect$$libshutdown$$0000000E  c_w.l(libshutdown2.o)
    0x0800021c   0x0800021c   0x00000000   Code   RO         2394    .ARM.Collect$$libshutdown$$00000011  c_w.l(libshutdown2.o)
    0x0800021c   0x0800021c   0x00000002   Code   RO         2395    .ARM.Collect$$libshutdown$$00000012  c_w.l(libshutdown2.o)
    0x0800021e   0x0800021e   0x00000000   Code   RO         2217    .ARM.Collect$$rtentry$$00000000  c_w.l(__rtentry.o)
    0x0800021e   0x0800021e   0x00000000   Code   RO         2238    .ARM.Collect$$rtentry$$00000002  c_w.l(__rtentry2.o)
    0x0800021e   0x0800021e   0x00000006   Code   RO         2250    .ARM.Collect$$rtentry$$00000004  c_w.l(__rtentry4.o)
    0x08000224   0x08000224   0x00000000   Code   RO         2240    .ARM.Collect$$rtentry$$00000009  c_w.l(__rtentry2.o)
    0x08000224   0x08000224   0x00000004   Code   RO         2241    .ARM.Collect$$rtentry$$0000000A  c_w.l(__rtentry2.o)
    0x08000228   0x08000228   0x00000000   Code   RO         2243    .ARM.Collect$$rtentry$$0000000C  c_w.l(__rtentry2.o)
    0x08000228   0x08000228   0x00000008   Code   RO         2244    .ARM.Collect$$rtentry$$0000000D  c_w.l(__rtentry2.o)
    0x08000230   0x08000230   0x00000002   Code   RO         2279    .ARM.Collect$$rtexit$$00000000  c_w.l(rtexit.o)
    0x08000232   0x08000232   0x00000000   Code   RO         2333    .ARM.Collect$$rtexit$$00000002  c_w.l(rtexit2.o)
    0x08000232   0x08000232   0x00000004   Code   RO         2334    .ARM.Collect$$rtexit$$00000003  c_w.l(rtexit2.o)
    0x08000236   0x08000236   0x00000006   Code   RO         2335    .ARM.Collect$$rtexit$$00000004  c_w.l(rtexit2.o)
    0x0800023c   0x0800023c   0x00000038   Code   RO            4    .text               startup_stm32f103xe.o
    0x08000274   0x08000274   0x00000002   Code   RO         2109    .text               c_w.l(use_no_semi_2.o)
    0x08000276   0x08000276   0x000000ee   Code   RO         2111    .text               c_w.l(lludivv7m.o)
    0x08000364   0x08000364   0x00000048   Code   RO         2113    .text               c_w.l(llsdiv.o)
    0x080003ac   0x080003ac   0x00000018   Code   RO         2117    .text               c_w.l(noretval__2printf.o)
    0x080003c4   0x080003c4   0x0000004e   Code   RO         2121    .text               c_w.l(_printf_pad.o)
    0x08000412   0x08000412   0x00000052   Code   RO         2123    .text               c_w.l(_printf_str.o)
    0x08000464   0x08000464   0x00000078   Code   RO         2125    .text               c_w.l(_printf_dec.o)
    0x080004dc   0x080004dc   0x0000007c   Code   RO         2127    .text               c_w.l(_printf_longlong_dec.o)
    0x08000558   0x08000558   0x00000058   Code   RO         2132    .text               c_w.l(_printf_hex_int.o)
    0x080005b0   0x080005b0   0x00000188   Code   RO         2167    .text               c_w.l(__printf_flags_ss_wp.o)
    0x08000738   0x08000738   0x00000014   Code   RO         2177    .text               c_w.l(strchr.o)
    0x0800074c   0x0800074c   0x00000058   Code   RO         2179    .text               c_w.l(memcmp.o)
    0x080007a4   0x080007a4   0x0000008a   Code   RO         2187    .text               c_w.l(rt_memcpy_v6.o)
    0x0800082e   0x0800082e   0x00000064   Code   RO         2189    .text               c_w.l(rt_memcpy_w.o)
    0x08000892   0x08000892   0x00000010   Code   RO         2191    .text               c_w.l(aeabi_memset.o)
    0x080008a2   0x080008a2   0x00000044   Code   RO         2193    .text               c_w.l(rt_memclr.o)
    0x080008e6   0x080008e6   0x0000004e   Code   RO         2195    .text               c_w.l(rt_memclr_w.o)
    0x08000934   0x08000934   0x00000006   Code   RO         2199    .text               c_w.l(heapauxi.o)
    0x0800093a   0x0800093a   0x00000002   Code   RO         2215    .text               c_w.l(use_no_semi.o)
    0x0800093c   0x0800093c   0x0000008a   Code   RO         2222    .text               c_w.l(lludiv10.o)
    0x080009c6   0x080009c6   0x000000b2   Code   RO         2224    .text               c_w.l(_printf_intcommon.o)
    0x08000a78   0x08000a78   0x0000002c   Code   RO         2226    .text               c_w.l(_printf_char.o)
    0x08000aa4   0x08000aa4   0x00000024   Code   RO         2228    .text               c_w.l(_printf_char_file.o)
    0x08000ac8   0x08000ac8   0x00000030   Code   RO         2254    .text               c_w.l(_printf_char_common.o)
    0x08000af8   0x08000af8   0x00000008   Code   RO         2256    .text               c_w.l(ferror.o)
    0x08000b00   0x08000b00   0x0000004a   Code   RO         2260    .text               c_w.l(sys_stackheap_outer.o)
    0x08000b4a   0x08000b4a   0x00000012   Code   RO         2264    .text               c_w.l(exit.o)
    0x08000b5c   0x08000b5c   0x00000008   Code   RO         2276    .text               c_w.l(libspace.o)
    0x08000b64   0x08000b64   0x0000003c   Code   RO         1978    i.TIM4_IRQHandler   usmart_port.o
    0x08000ba0   0x08000ba0   0x00000084   Code   RO          277    i.USART1_IRQHandler  usart.o
    0x08000c24   0x08000c24   0x0000000e   Code   RO         2160    i._is_digit         c_w.l(__printf_wp.o)
    0x08000c32   0x08000c32   0x00000004   Code   RO          279    i._sys_exit         usart.o
    0x08000c36   0x08000c36   0x0000008a   Code   RO         1120    i.change_bitmap     ff.o
    0x08000cc0   0x08000cc0   0x00000104   Code   RO         1121    i.check_fs          ff.o
    0x08000dc4   0x08000dc4   0x00000062   Code   RO         1122    i.clmt_clust        ff.o
    0x08000e26   0x08000e26   0x0000001a   Code   RO         1123    i.clst2sect         ff.o
    0x08000e40   0x08000e40   0x00000098   Code   RO         1124    i.cmp_lfn           ff.o
    0x08000ed8   0x08000ed8   0x000001cc   Code   RO         1125    i.create_chain      ff.o
    0x080010a4   0x080010a4   0x0000025c   Code   RO         1126    i.create_name       ff.o
    0x08001300   0x08001300   0x0000015a   Code   RO         1127    i.create_partition  ff.o
    0x0800145a   0x0800145a   0x00000090   Code   RO         1128    i.create_xdir       ff.o
    0x080014ea   0x080014ea   0x00000002   PAD
    0x080014ec   0x080014ec   0x00000034   Code   RO         1129    i.dbc_1st           ff.o
    0x08001520   0x08001520   0x00000048   Code   RO         1130    i.dbc_2nd           ff.o
    0x08001568   0x08001568   0x0000002c   Code   RO          123    i.delay_init        delay.o
    0x08001594   0x08001594   0x00000012   Code   RO          124    i.delay_ms          delay.o
    0x080015a6   0x080015a6   0x00000002   PAD
    0x080015a8   0x080015a8   0x00000048   Code   RO          125    i.delay_us          delay.o
    0x080015f0   0x080015f0   0x0000007c   Code   RO         1131    i.dir_alloc         ff.o
    0x0800166c   0x0800166c   0x000000c2   Code   RO         1132    i.dir_clear         ff.o
    0x0800172e   0x0800172e   0x000001a8   Code   RO         1133    i.dir_find          ff.o
    0x080018d6   0x080018d6   0x000000e0   Code   RO         1134    i.dir_next          ff.o
    0x080019b6   0x080019b6   0x00000102   Code   RO         1135    i.dir_read          ff.o
    0x08001ab8   0x08001ab8   0x0000022a   Code   RO         1136    i.dir_register      ff.o
    0x08001ce2   0x08001ce2   0x00000072   Code   RO         1137    i.dir_remove        ff.o
    0x08001d54   0x08001d54   0x000000aa   Code   RO         1138    i.dir_sdi           ff.o
    0x08001dfe   0x08001dfe   0x0000002c   Code   RO         1068    i.disk_initialize   diskio.o
    0x08001e2a   0x08001e2a   0x00000002   PAD
    0x08001e2c   0x08001e2c   0x000000b0   Code   RO         1069    i.disk_ioctl        diskio.o
    0x08001edc   0x08001edc   0x0000007e   Code   RO         1070    i.disk_read         diskio.o
    0x08001f5a   0x08001f5a   0x00000006   Code   RO         1071    i.disk_status       diskio.o
    0x08001f60   0x08001f60   0x0000007e   Code   RO         1072    i.disk_write        diskio.o
    0x08001fde   0x08001fde   0x0000004a   Code   RO         1643    i.exfuns_get_free   exfuns.o
    0x08002028   0x08002028   0x00000044   Code   RO         1645    i.exfuns_init       exfuns.o
    0x0800206c   0x0800206c   0x00000026   Code   RO         1139    i.f_close           ff.o
    0x08002092   0x08002092   0x00000018   Code   RO         1140    i.f_closedir        ff.o
    0x080020aa   0x080020aa   0x0000015c   Code   RO         1141    i.f_getfree         ff.o
    0x08002206   0x08002206   0x0000013c   Code   RO         1142    i.f_getlabel        ff.o
    0x08002342   0x08002342   0x00000050   Code   RO         1143    i.f_gets            ff.o
    0x08002392   0x08002392   0x00000456   Code   RO         1144    i.f_lseek           ff.o
    0x080027e8   0x080027e8   0x000001a2   Code   RO         1145    i.f_mkdir           ff.o
    0x0800298a   0x0800298a   0x00000002   PAD
    0x0800298c   0x0800298c   0x00000dfc   Code   RO         1146    i.f_mkfs            ff.o
    0x08003788   0x08003788   0x00000054   Code   RO         1147    i.f_mount           ff.o
    0x080037dc   0x080037dc   0x00000312   Code   RO         1148    i.f_open            ff.o
    0x08003aee   0x08003aee   0x000000b8   Code   RO         1149    i.f_opendir         ff.o
    0x08003ba6   0x08003ba6   0x00000022   Code   RO         1151    i.f_putc            ff.o
    0x08003bc8   0x08003bc8   0x0000002c   Code   RO         1152    i.f_puts            ff.o
    0x08003bf4   0x08003bf4   0x00000228   Code   RO         1153    i.f_read            ff.o
    0x08003e1c   0x08003e1c   0x00000070   Code   RO         1154    i.f_readdir         ff.o
    0x08003e8c   0x08003e8c   0x00000204   Code   RO         1155    i.f_rename          ff.o
    0x08004090   0x08004090   0x000001ec   Code   RO         1156    i.f_setlabel        ff.o
    0x0800427c   0x0800427c   0x000001a8   Code   RO         1158    i.f_sync            ff.o
    0x08004424   0x08004424   0x000000fc   Code   RO         1160    i.f_unlink          ff.o
    0x08004520   0x08004520   0x00000284   Code   RO         1161    i.f_write           ff.o
    0x080047a4   0x080047a4   0x0000000e   Code   RO         1573    i.ff_memalloc       ffsystem.o
    0x080047b2   0x080047b2   0x0000000e   Code   RO         1574    i.ff_memfree        ffsystem.o
    0x080047c0   0x080047c0   0x00000068   Code   RO         1606    i.ff_oem2uni        ffunicode.o
    0x08004828   0x08004828   0x00000074   Code   RO         1607    i.ff_uni2oem        ffunicode.o
    0x0800489c   0x0800489c   0x000000b0   Code   RO         1608    i.ff_wtoupper       ffunicode.o
    0x0800494c   0x0800494c   0x00000036   Code   RO         1162    i.fill_first_frag   ff.o
    0x08004982   0x08004982   0x00000044   Code   RO         1163    i.fill_last_frag    ff.o
    0x080049c6   0x080049c6   0x000000a4   Code   RO         1164    i.find_bitmap       ff.o
    0x08004a6a   0x08004a6a   0x00000078   Code   RO         1165    i.find_volume       ff.o
    0x08004ae2   0x08004ae2   0x000000c4   Code   RO         1166    i.follow_path       ff.o
    0x08004ba6   0x08004ba6   0x00000002   PAD
    0x08004ba8   0x08004ba8   0x0000001c   Code   RO          281    i.fputc             usart.o
    0x08004bc4   0x08004bc4   0x000000d4   Code   RO         1167    i.gen_numname       ff.o
    0x08004c98   0x08004c98   0x00000194   Code   RO         1168    i.get_fat           ff.o
    0x08004e2c   0x08004e2c   0x00000004   Code   RO         1575    i.get_fattime       ffsystem.o
    0x08004e30   0x08004e30   0x0000027a   Code   RO         1169    i.get_fileinfo      ff.o
    0x080050aa   0x080050aa   0x0000004e   Code   RO         1170    i.get_ldnumber      ff.o
    0x080050f8   0x080050f8   0x00000032   Code   RO         1171    i.init_alloc_info   ff.o
    0x0800512a   0x0800512a   0x00000002   PAD
    0x0800512c   0x0800512c   0x00000094   Code   RO          618    i.key_init          key.o
    0x080051c0   0x080051c0   0x00000034   Code   RO          366    i.lcd_clear         lcd.o
    0x080051f4   0x080051f4   0x0000016c   Code   RO          368    i.lcd_display_dir   lcd.o
    0x08005360   0x08005360   0x00000020   Code   RO          374    i.lcd_draw_point    lcd.o
    0x08005380   0x08005380   0x0000022c   Code   RO          376    i.lcd_ex_ili9341_reginit  lcd.o
    0x080055ac   0x080055ac   0x00000340   Code   RO          377    i.lcd_ex_ili9806_reginit  lcd.o
    0x080058ec   0x080058ec   0x00000ef2   Code   RO          378    i.lcd_ex_nt35310_reginit  lcd.o
    0x080067de   0x080067de   0x00000f6e   Code   RO          379    i.lcd_ex_nt35510_reginit  lcd.o
    0x0800774c   0x0800774c   0x0000016e   Code   RO          380    i.lcd_ex_ssd1963_reginit  lcd.o
    0x080078ba   0x080078ba   0x000001a8   Code   RO          381    i.lcd_ex_st7789_reginit  lcd.o
    0x08007a62   0x08007a62   0x000001c6   Code   RO          382    i.lcd_ex_st7796_reginit  lcd.o
    0x08007c28   0x08007c28   0x00000054   Code   RO          383    i.lcd_fill          lcd.o
    0x08007c7c   0x08007c7c   0x0000048c   Code   RO          385    i.lcd_init          lcd.o
    0x08008108   0x08008108   0x0000000c   Code   RO          386    i.lcd_opt_delay     lcd.o
    0x08008114   0x08008114   0x00000016   Code   RO          387    i.lcd_pow           lcd.o
    0x0800812a   0x0800812a   0x00000002   PAD
    0x0800812c   0x0800812c   0x00000018   Code   RO          388    i.lcd_rd_data       lcd.o
    0x08008144   0x08008144   0x0000023c   Code   RO          390    i.lcd_scan_dir      lcd.o
    0x08008380   0x08008380   0x00000120   Code   RO          391    i.lcd_set_cursor    lcd.o
    0x080084a0   0x080084a0   0x00000140   Code   RO          393    i.lcd_show_char     lcd.o
    0x080085e0   0x080085e0   0x00000098   Code   RO          394    i.lcd_show_num      lcd.o
    0x08008678   0x08008678   0x0000006a   Code   RO          395    i.lcd_show_string   lcd.o
    0x080086e2   0x080086e2   0x00000002   PAD
    0x080086e4   0x080086e4   0x00000054   Code   RO          397    i.lcd_ssd_backlight_set  lcd.o
    0x08008738   0x08008738   0x00000018   Code   RO          398    i.lcd_wr_data       lcd.o
    0x08008750   0x08008750   0x00000018   Code   RO          399    i.lcd_wr_regno      lcd.o
    0x08008768   0x08008768   0x00000014   Code   RO          400    i.lcd_write_ram_prepare  lcd.o
    0x0800877c   0x0800877c   0x00000010   Code   RO          401    i.lcd_write_reg     lcd.o
    0x0800878c   0x0800878c   0x00000026   Code   RO         1172    i.ld_clust          ff.o
    0x080087b2   0x080087b2   0x00000018   Code   RO         1173    i.ld_dword          ff.o
    0x080087ca   0x080087ca   0x00000062   Code   RO         1174    i.ld_qword          ff.o
    0x0800882c   0x0800882c   0x0000000c   Code   RO         1175    i.ld_word           ff.o
    0x08008838   0x08008838   0x00000068   Code   RO          342    i.led_init          led.o
    0x080088a0   0x080088a0   0x00000040   Code   RO         1176    i.load_obj_xdir     ff.o
    0x080088e0   0x080088e0   0x0000010e   Code   RO         1177    i.load_xdir         ff.o
    0x080089ee   0x080089ee   0x00000002   PAD
    0x080089f0   0x080089f0   0x000003bc   Code   RO           13    i.main              main.o
    0x08008dac   0x08008dac   0x00000014   Code   RO         1717    i.mf_close          fattester.o
    0x08008dc0   0x08008dc0   0x00000010   Code   RO         1718    i.mf_closedir       fattester.o
    0x08008dd0   0x08008dd0   0x0000002c   Code   RO         1719    i.mf_fmkfs          fattester.o
    0x08008dfc   0x08008dfc   0x00000020   Code   RO         1720    i.mf_free           fattester.o
    0x08008e1c   0x08008e1c   0x00000084   Code   RO         1721    i.mf_getlabel       fattester.o
    0x08008ea0   0x08008ea0   0x00000048   Code   RO         1722    i.mf_gets           fattester.o
    0x08008ee8   0x08008ee8   0x00000040   Code   RO         1723    i.mf_init           fattester.o
    0x08008f28   0x08008f28   0x00000018   Code   RO         1724    i.mf_lseek          fattester.o
    0x08008f40   0x08008f40   0x0000000c   Code   RO         1725    i.mf_mkdir          fattester.o
    0x08008f4c   0x08008f4c   0x00000018   Code   RO         1726    i.mf_mount          fattester.o
    0x08008f64   0x08008f64   0x0000001c   Code   RO         1727    i.mf_open           fattester.o
    0x08008f80   0x08008f80   0x00000014   Code   RO         1728    i.mf_opendir        fattester.o
    0x08008f94   0x08008f94   0x00000018   Code   RO         1729    i.mf_putc           fattester.o
    0x08008fac   0x08008fac   0x00000018   Code   RO         1730    i.mf_puts           fattester.o
    0x08008fc4   0x08008fc4   0x0000015c   Code   RO         1731    i.mf_read           fattester.o
    0x08009120   0x08009120   0x00000274   Code   RO         1732    i.mf_readdir        fattester.o
    0x08009394   0x08009394   0x00000010   Code   RO         1733    i.mf_rename         fattester.o
    0x080093a4   0x080093a4   0x00000064   Code   RO         1734    i.mf_scan_files     fattester.o
    0x08009408   0x08009408   0x0000005c   Code   RO         1735    i.mf_setlabel       fattester.o
    0x08009464   0x08009464   0x000000a8   Code   RO         1736    i.mf_showfree       fattester.o
    0x0800950c   0x0800950c   0x0000000c   Code   RO         1737    i.mf_size           fattester.o
    0x08009518   0x08009518   0x0000000c   Code   RO         1738    i.mf_tell           fattester.o
    0x08009524   0x08009524   0x0000000c   Code   RO         1739    i.mf_unlink         fattester.o
    0x08009530   0x08009530   0x000000c4   Code   RO         1740    i.mf_write          fattester.o
    0x080095f4   0x080095f4   0x00000474   Code   RO         1178    i.mount_volume      ff.o
    0x08009a68   0x08009a68   0x00000034   Code   RO         1179    i.move_window       ff.o
    0x08009a9c   0x08009a9c   0x0000006c   Code   RO          989    i.my_mem_free       malloc.o
    0x08009b08   0x08009b08   0x00000030   Code   RO          990    i.my_mem_init       malloc.o
    0x08009b38   0x08009b38   0x000000a8   Code   RO          991    i.my_mem_malloc     malloc.o
    0x08009be0   0x08009be0   0x00000040   Code   RO          992    i.my_mem_perused    malloc.o
    0x08009c20   0x08009c20   0x00000014   Code   RO          993    i.my_mem_set        malloc.o
    0x08009c34   0x08009c34   0x00000024   Code   RO          994    i.myfree            malloc.o
    0x08009c58   0x08009c58   0x00000028   Code   RO          995    i.mymalloc          malloc.o
    0x08009c80   0x08009c80   0x0000003c   Code   RO          893    i.norflash_erase_sector  norflash.o
    0x08009cbc   0x08009cbc   0x00000098   Code   RO          894    i.norflash_init     norflash.o
    0x08009d54   0x08009d54   0x00000048   Code   RO          895    i.norflash_read     norflash.o
    0x08009d9c   0x08009d9c   0x00000048   Code   RO          896    i.norflash_read_id  norflash.o
    0x08009de4   0x08009de4   0x00000054   Code   RO          897    i.norflash_read_sr  norflash.o
    0x08009e38   0x08009e38   0x00000034   Code   RO          898    i.norflash_send_address  norflash.o
    0x08009e6c   0x08009e6c   0x00000014   Code   RO          899    i.norflash_wait_busy  norflash.o
    0x08009e80   0x08009e80   0x000000b8   Code   RO          900    i.norflash_write    norflash.o
    0x08009f38   0x08009f38   0x00000024   Code   RO          901    i.norflash_write_enable  norflash.o
    0x08009f5c   0x08009f5c   0x00000046   Code   RO          902    i.norflash_write_nocheck  norflash.o
    0x08009fa2   0x08009fa2   0x00000002   PAD
    0x08009fa4   0x08009fa4   0x00000050   Code   RO          903    i.norflash_write_page  norflash.o
    0x08009ff4   0x08009ff4   0x00000050   Code   RO          904    i.norflash_write_sr  norflash.o
    0x0800a044   0x0800a044   0x0000008c   Code   RO         1180    i.pick_lfn          ff.o
    0x0800a0d0   0x0800a0d0   0x00000144   Code   RO         1181    i.put_fat           ff.o
    0x0800a214   0x0800a214   0x00000080   Code   RO         1182    i.put_lfn           ff.o
    0x0800a294   0x0800a294   0x00000042   Code   RO         1183    i.put_utf           ff.o
    0x0800a2d6   0x0800a2d6   0x00000044   Code   RO         1184    i.putc_bfd          ff.o
    0x0800a31a   0x0800a31a   0x0000002c   Code   RO         1185    i.putc_flush        ff.o
    0x0800a346   0x0800a346   0x00000012   Code   RO         1186    i.putc_init         ff.o
    0x0800a358   0x0800a358   0x00000006   Code   RO         1886    i.read_addr         usmart.o
    0x0800a35e   0x0800a35e   0x0000014a   Code   RO         1187    i.remove_chain      ff.o
    0x0800a4a8   0x0800a4a8   0x00000174   Code   RO          697    i.sd_init           sdio_sdcard.o
    0x0800a61c   0x0800a61c   0x00000088   Code   RO          698    i.sd_read_disk      sdio_sdcard.o
    0x0800a6a4   0x0800a6a4   0x0000008c   Code   RO          699    i.sd_write_disk     sdio_sdcard.o
    0x0800a730   0x0800a730   0x00000014   Code   RO          700    i.sdmmc_clock_set   sdio_sdcard.o
    0x0800a744   0x0800a744   0x00000038   Code   RO          701    i.sdmmc_cmd_error   sdio_sdcard.o
    0x0800a77c   0x0800a77c   0x00000070   Code   RO          702    i.sdmmc_cmd_resp1_error  sdio_sdcard.o
    0x0800a7ec   0x0800a7ec   0x00000060   Code   RO          703    i.sdmmc_cmd_resp2_error  sdio_sdcard.o
    0x0800a84c   0x0800a84c   0x00000048   Code   RO          704    i.sdmmc_cmd_resp3_error  sdio_sdcard.o
    0x0800a894   0x0800a894   0x000000a0   Code   RO          705    i.sdmmc_cmd_resp6_error  sdio_sdcard.o
    0x0800a934   0x0800a934   0x00000054   Code   RO          706    i.sdmmc_cmd_resp7_error  sdio_sdcard.o
    0x0800a988   0x0800a988   0x00000130   Code   RO          707    i.sdmmc_find_scr    sdio_sdcard.o
    0x0800aab8   0x0800aab8   0x00000310   Code   RO          708    i.sdmmc_get_card_info  sdio_sdcard.o
    0x0800adc8   0x0800adc8   0x00000104   Code   RO          710    i.sdmmc_initialize_cards  sdio_sdcard.o
    0x0800aecc   0x0800aecc   0x00000090   Code   RO          711    i.sdmmc_is_card_programming  sdio_sdcard.o
    0x0800af5c   0x0800af5c   0x00000168   Code   RO          712    i.sdmmc_power_on    sdio_sdcard.o
    0x0800b0c4   0x0800b0c4   0x000001c8   Code   RO          713    i.sdmmc_read_blocks  sdio_sdcard.o
    0x0800b28c   0x0800b28c   0x00000016   Code   RO          714    i.sdmmc_select_deselect  sdio_sdcard.o
    0x0800b2a2   0x0800b2a2   0x00000002   PAD
    0x0800b2a4   0x0800b2a4   0x00000024   Code   RO          715    i.sdmmc_send_cmd    sdio_sdcard.o
    0x0800b2c8   0x0800b2c8   0x00000034   Code   RO          716    i.sdmmc_send_data_cfg  sdio_sdcard.o
    0x0800b2fc   0x0800b2fc   0x00000080   Code   RO          718    i.sdmmc_wide_bus_enable  sdio_sdcard.o
    0x0800b37c   0x0800b37c   0x00000060   Code   RO          719    i.sdmmc_wide_bus_operation  sdio_sdcard.o
    0x0800b3dc   0x0800b3dc   0x000002f4   Code   RO          720    i.sdmmc_write_blocks  sdio_sdcard.o
    0x0800b6d0   0x0800b6d0   0x000000bc   Code   RO          853    i.spi2_init         spi.o
    0x0800b78c   0x0800b78c   0x00000034   Code   RO          854    i.spi2_read_write_byte  spi.o
    0x0800b7c0   0x0800b7c0   0x00000034   Code   RO          855    i.spi2_set_speed    spi.o
    0x0800b7f4   0x0800b7f4   0x0000016c   Code   RO          649    i.sram_init         sram.o
    0x0800b960   0x0800b960   0x00000024   Code   RO         1188    i.st_clust          ff.o
    0x0800b984   0x0800b984   0x00000018   Code   RO         1189    i.st_dword          ff.o
    0x0800b99c   0x0800b99c   0x0000005c   Code   RO         1190    i.st_qword          ff.o
    0x0800b9f8   0x0800b9f8   0x0000000c   Code   RO         1191    i.st_word           ff.o
    0x0800ba04   0x0800ba04   0x00000072   Code   RO         1192    i.store_xdir        ff.o
    0x0800ba76   0x0800ba76   0x00000020   Code   RO         1193    i.sum_sfn           ff.o
    0x0800ba96   0x0800ba96   0x00000002   PAD
    0x0800ba98   0x0800ba98   0x0000008c   Code   RO         1194    i.sync_fs           ff.o
    0x0800bb24   0x0800bb24   0x0000004a   Code   RO         1195    i.sync_window       ff.o
    0x0800bb6e   0x0800bb6e   0x00000002   PAD
    0x0800bb70   0x0800bb70   0x000000ac   Code   RO          161    i.sys_clock_set     sys.o
    0x0800bc1c   0x0800bc1c   0x00000018   Code   RO          163    i.sys_gpio_pin_set  sys.o
    0x0800bc34   0x0800bc34   0x000000ea   Code   RO          165    i.sys_gpio_set      sys.o
    0x0800bd1e   0x0800bd1e   0x00000004   Code   RO          166    i.sys_intx_disable  sys.o
    0x0800bd22   0x0800bd22   0x00000004   Code   RO          167    i.sys_intx_enable   sys.o
    0x0800bd26   0x0800bd26   0x00000002   PAD
    0x0800bd28   0x0800bd28   0x00000078   Code   RO          170    i.sys_nvic_init     sys.o
    0x0800bda0   0x0800bda0   0x00000028   Code   RO          171    i.sys_nvic_priority_group_config  sys.o
    0x0800bdc8   0x0800bdc8   0x00000010   Code   RO          172    i.sys_nvic_set_vector_table  sys.o
    0x0800bdd8   0x0800bdd8   0x00000070   Code   RO          175    i.sys_stm32_clock_init  sys.o
    0x0800be48   0x0800be48   0x0000004c   Code   RO         1196    i.tchar2uni         ff.o
    0x0800be94   0x0800be94   0x000000c4   Code   RO          282    i.usart_init        usart.o
    0x0800bf58   0x0800bf58   0x000000b0   Code   RO         1887    i.usmart_cmd_rec    usmart.o
    0x0800c008   0x0800c008   0x000002d4   Code   RO         1888    i.usmart_exe        usmart.o
    0x0800c2dc   0x0800c2dc   0x000000d4   Code   RO         2026    i.usmart_get_aparm  usmart_str.o
    0x0800c3b0   0x0800c3b0   0x00000036   Code   RO         2027    i.usmart_get_cmdname  usmart_str.o
    0x0800c3e6   0x0800c3e6   0x00000002   PAD
    0x0800c3e8   0x0800c3e8   0x000001c0   Code   RO         2028    i.usmart_get_fname  usmart_str.o
    0x0800c5a8   0x0800c5a8   0x0000010c   Code   RO         2029    i.usmart_get_fparam  usmart_str.o
    0x0800c6b4   0x0800c6b4   0x00000028   Code   RO         1979    i.usmart_get_input_string  usmart_port.o
    0x0800c6dc   0x0800c6dc   0x00000020   Code   RO         2030    i.usmart_get_parmpos  usmart_str.o
    0x0800c6fc   0x0800c6fc   0x00000018   Code   RO         1889    i.usmart_init       usmart.o
    0x0800c714   0x0800c714   0x00000016   Code   RO         2031    i.usmart_pow        usmart_str.o
    0x0800c72a   0x0800c72a   0x00000002   PAD
    0x0800c72c   0x0800c72c   0x000000a8   Code   RO         1890    i.usmart_scan       usmart.o
    0x0800c7d4   0x0800c7d4   0x00000016   Code   RO         2032    i.usmart_search_nextc  usmart_str.o
    0x0800c7ea   0x0800c7ea   0x00000106   Code   RO         2033    i.usmart_str2num    usmart_str.o
    0x0800c8f0   0x0800c8f0   0x00000022   Code   RO         2034    i.usmart_strcmp     usmart_str.o
    0x0800c912   0x0800c912   0x00000016   Code   RO         2035    i.usmart_strcopy    usmart_str.o
    0x0800c928   0x0800c928   0x00000018   Code   RO         2036    i.usmart_strlen     usmart_str.o
    0x0800c940   0x0800c940   0x000006f4   Code   RO         1891    i.usmart_sys_cmd_exe  usmart.o
    0x0800d034   0x0800d034   0x00000040   Code   RO         1980    i.usmart_timx_get_time  usmart_port.o
    0x0800d074   0x0800d074   0x00000068   Code   RO         1981    i.usmart_timx_init  usmart_port.o
    0x0800d0dc   0x0800d0dc   0x00000030   Code   RO         1982    i.usmart_timx_reset_time  usmart_port.o
    0x0800d10c   0x0800d10c   0x0000003c   Code   RO         1197    i.validate          ff.o
    0x0800d148   0x0800d148   0x00000004   Code   RO         1892    i.write_addr        usmart.o
    0x0800d14c   0x0800d14c   0x0000003a   Code   RO         1198    i.xdir_sum          ff.o
    0x0800d186   0x0800d186   0x0000004c   Code   RO         1199    i.xname_sum         ff.o
    0x0800d1d2   0x0800d1d2   0x0000001a   Code   RO         1200    i.xsum32            ff.o
    0x0800d1ec   0x0800d1ec   0x0000005a   Code   RO         2203    x$fpl$dfixu         fz_ws.l(dfixu.o)
    0x0800d246   0x0800d246   0x00000026   Code   RO         2207    x$fpl$dfltu         fz_ws.l(dflt_clz.o)
    0x0800d26c   0x0800d26c   0x00000154   Code   RO         2213    x$fpl$dmul          fz_ws.l(dmul.o)
    0x0800d3c0   0x0800d3c0   0x0000009c   Code   RO         2232    x$fpl$dnaninf       fz_ws.l(dnaninf.o)
    0x0800d45c   0x0800d45c   0x0000000c   Code   RO         2234    x$fpl$dretinf       fz_ws.l(dretinf.o)
    0x0800d468   0x0800d468   0x00000000   Code   RO         2236    x$fpl$usenofp       fz_ws.l(usenofp.o)
    0x0800d468   0x0800d468   0x00002f80   Data   RO          403    .constdata          lcd.o
    0x080103e8   0x080103e8   0x00000018   Data   RO         1000    .constdata          malloc.o
    0x08010400   0x08010400   0x00000058   Data   RO         1201    .constdata          ff.o
    0x08010458   0x08010458   0x0002abb6   Data   RO         1609    .constdata          ffunicode.o
    0x0803b00e   0x0803b00e   0x00000002   PAD
    0x0803b010   0x0803b010   0x00000010   Data   RO         1742    .constdata          fattester.o
    0x0803b020   0x0803b020   0x00000028   Data   RO         2133    .constdata          c_w.l(_printf_hex_int.o)
    0x0803b048   0x0803b048   0x00000011   Data   RO         2168    .constdata          c_w.l(__printf_flags_ss_wp.o)
    0x0803b059   0x0803b059   0x00000003   PAD
    0x0803b05c   0x0803b05c   0x00000028   Data   RO         1893    .conststring        usmart.o
    0x0803b084   0x0803b084   0x0000038c   Data   RO         1953    .conststring        usmart_config.o
    0x0803b410   0x0803b410   0x00000020   Data   RO         2396    Region$$Table       anon$$obj.o


    Execution Region RW_IRAM1 (Exec base: 0x20000000, Load base: 0x0803b430, Size: 0x0000c760, Max: 0x00010000, ABSOLUTE, COMPRESSED[0x000000f8])

    Exec Addr    Load Addr    Size         Type   Attr      Idx    E Section Name        Object

    0x20000000   COMPRESSED   0x00000004   Data   RW          126    .data               delay.o
    0x20000004   COMPRESSED   0x00000006   Data   RW          284    .data               usart.o
    0x2000000a   COMPRESSED   0x00000002   PAD
    0x2000000c   COMPRESSED   0x00000008   Data   RW          404    .data               lcd.o
    0x20000014   COMPRESSED   0x00000008   Data   RW          722    .data               sdio_sdcard.o
    0x2000001c   COMPRESSED   0x00000002   Data   RW          906    .data               norflash.o
    0x2000001e   COMPRESSED   0x00000002   PAD
    0x20000020   COMPRESSED   0x0000001c   Data   RW         1001    .data               malloc.o
    0x2000003c   COMPRESSED   0x0000000a   Data   RW         1202    .data               ff.o
    0x20000046   COMPRESSED   0x00000002   PAD
    0x20000048   COMPRESSED   0x00000008   Data   RW         1648    .data               exfuns.o
    0x20000050   COMPRESSED   0x0000001c   Data   RW         1894    .data               usmart.o
    0x2000006c   COMPRESSED   0x000001c4   Data   RW         1954    .data               usmart_config.o
    0x20000230        -       0x000000c8   Zero   RW          283    .bss                usart.o
    0x200002f8        -       0x0000000e   Zero   RW          402    .bss                lcd.o
    0x20000306   COMPRESSED   0x00000002   PAD
    0x20000308        -       0x00000278   Zero   RW          721    .bss                sdio_sdcard.o
    0x20000580        -       0x00001000   Zero   RW          905    .bss                norflash.o
    0x20001580        -       0x0000aa00   Zero   RW          999    .bss                malloc.o
    0x2000bf80        -       0x00000180   Zero   RW         1741    .bss                fattester.o
    0x2000c100        -       0x00000060   Zero   RW         2277    .bss                c_w.l(libspace.o)
    0x2000c160        -       0x00000200   Zero   RW            2    HEAP                startup_stm32f103xe.o
    0x2000c360        -       0x00000400   Zero   RW            1    STACK               startup_stm32f103xe.o



  Load Region LR$$.ARM.__AT_0x68000000 (Base: 0x68000000, Size: 0x00000000, Max: 0x000f0c00, ABSOLUTE)

    Execution Region ER$$.ARM.__AT_0x68000000 (Exec base: 0x68000000, Load base: 0x68000000, Size: 0x000f0c00, Max: 0x000f0c00, ABSOLUTE, UNINIT)

    Exec Addr    Load Addr    Size         Type   Attr      Idx    E Section Name        Object

    0x68000000        -       0x000f0c00   Zero   RW          997    .ARM.__AT_0x68000000  malloc.o



  Load Region LR$$.ARM.__AT_0x680F0C00 (Base: 0x680f0c00, Size: 0x00000000, Max: 0x0000f0c0, ABSOLUTE)

    Execution Region ER$$.ARM.__AT_0x680F0C00 (Exec base: 0x680f0c00, Load base: 0x680f0c00, Size: 0x0000f0c0, Max: 0x0000f0c0, ABSOLUTE, UNINIT)

    Exec Addr    Load Addr    Size         Type   Attr      Idx    E Section Name        Object

    0x680f0c00        -       0x0000f0c0   Zero   RW          998    .ARM.__AT_0x680F0C00  malloc.o


==============================================================================

Image component sizes


      Code (inc. data)   RO Data    RW Data    ZI Data      Debug   Object Name

       134         10          0          4          0       2119   delay.o
       478          6          0          0          0       5658   diskio.o
       142          4          0          8          0       2655   exfuns.o
      2120       1002         16          0        384      17054   fattester.o
     20068        218         88         10          0      95212   ff.o
        32          0          0          0          0       1769   ffsystem.o
       396         28     175030          0          0       6056   ffunicode.o
       148         14          0          0          0        543   key.o
     13768        166      12160          8         14      26796   lcd.o
       104         14          0          0          0        535   led.o
       956        292          0          0          0     397083   main.o
       484         54         24         28    1091264       6935   malloc.o
       962         56          0          2       4096       8964   norflash.o
      4646        266          0          8        632      28255   sdio_sdcard.o
       292         24          0          0          0       1764   spi.o
       364         26          0          0          0        616   sram.o
        56         22        304          0       1536        976   startup_stm32f103xe.o
       726         36          0          0          0       6286   sys.o
       360         34          0          6        200       4529   usart.o
      2882       1310         40         28          0       6362   usmart.o
         0          0        908        452          0       1780   usmart_config.o
       316         48          0          0          0       2927   usmart_port.o
      1400         20          0          0          0       9829   usmart_str.o

    ----------------------------------------------------------------------
     50866       3650     188604        560    1098128     634703   Object Totals
         0          0         32          0          0          0   (incl. Generated)
        32          0          2          6          2          0   (incl. Padding)

    ----------------------------------------------------------------------

      Code (inc. data)   RO Data    RW Data    ZI Data      Debug   Library Member Name

        90          0          0          0          0          0   __dczerorl2.o
         8          0          0          0          0         68   __main.o
       392          4         17          0          0         92   __printf_flags_ss_wp.o
        14          0          0          0          0         68   __printf_wp.o
         0          0          0          0          0          0   __rtentry.o
        12          0          0          0          0          0   __rtentry2.o
         6          0          0          0          0          0   __rtentry4.o
        52          8          0          0          0          0   __scatter.o
        28          0          0          0          0          0   __scatter_zi.o
         6          0          0          0          0          0   _printf_c.o
        44          0          0          0          0        108   _printf_char.o
        48          6          0          0          0         96   _printf_char_common.o
        36          4          0          0          0         80   _printf_char_file.o
         6          0          0          0          0          0   _printf_d.o
       120         16          0          0          0         92   _printf_dec.o
        88          4         40          0          0         88   _printf_hex_int.o
       178          0          0          0          0         88   _printf_intcommon.o
        10          0          0          0          0          0   _printf_ll.o
         6          0          0          0          0          0   _printf_lld.o
       124         16          0          0          0         92   _printf_longlong_dec.o
        78          0          0          0          0        108   _printf_pad.o
         0          0          0          0          0          0   _printf_percent.o
         4          0          0          0          0          0   _printf_percent_end.o
         6          0          0          0          0          0   _printf_s.o
        82          0          0          0          0         80   _printf_str.o
         6          0          0          0          0          0   _printf_u.o
         6          0          0          0          0          0   _printf_x.o
        16          0          0          0          0         68   aeabi_memset.o
        18          0          0          0          0         80   exit.o
         8          0          0          0          0         68   ferror.o
         6          0          0          0          0        152   heapauxi.o
         2          0          0          0          0          0   libinit.o
         2          0          0          0          0          0   libinit2.o
         2          0          0          0          0          0   libshutdown.o
         2          0          0          0          0          0   libshutdown2.o
         8          4          0          0         96         68   libspace.o
        72          0          0          0          0         76   llsdiv.o
       138          0          0          0          0         80   lludiv10.o
       238          0          0          0          0        100   lludivv7m.o
        88          0          0          0          0         76   memcmp.o
        24          4          0          0          0         84   noretval__2printf.o
        68          0          0          0          0         68   rt_memclr.o
        78          0          0          0          0         80   rt_memclr_w.o
       138          0          0          0          0         68   rt_memcpy_v6.o
       100          0          0          0          0         80   rt_memcpy_w.o
         2          0          0          0          0          0   rtexit.o
        10          0          0          0          0          0   rtexit2.o
        20          0          0          0          0         68   strchr.o
        74          0          0          0          0         80   sys_stackheap_outer.o
         2          0          0          0          0         68   use_no_semi.o
         2          0          0          0          0         68   use_no_semi_2.o
        90          4          0          0          0         92   dfixu.o
        38          0          0          0          0         68   dflt_clz.o
       340         12          0          0          0        104   dmul.o
       156          4          0          0          0         92   dnaninf.o
        12          0          0          0          0         68   dretinf.o
         0          0          0          0          0          0   usenofp.o

    ----------------------------------------------------------------------
      3206         86         60          0         96       2916   Library Totals
         2          0          3          0          0          0   (incl. Padding)

    ----------------------------------------------------------------------

      Code (inc. data)   RO Data    RW Data    ZI Data      Debug   Library Name

      2568         66         57          0         96       2492   c_w.l
       636         20          0          0          0        424   fz_ws.l

    ----------------------------------------------------------------------
      3206         86         60          0         96       2916   Library Totals

    ----------------------------------------------------------------------

==============================================================================


      Code (inc. data)   RO Data    RW Data    ZI Data      Debug   

     54072       3736     188664        560    1098224     624511   Grand Totals
     54072       3736     188664        248    1098224     624511   ELF Image Totals (compressed)
     54072       3736     188664        248          0          0   ROM Totals

==============================================================================

    Total RO  Size (Code + RO Data)               242736 ( 237.05kB)
    Total RW  Size (RW Data + ZI Data)           1098784 (1073.03kB)
    Total ROM Size (Code + RO Data + RW Data)     242984 ( 237.29kB)

==============================================================================

